(lp0
(lp1
F9.057971014492754e-05
aF0.00018115942028985507
aF0.0002717391304347826
aF0.00036231884057971015
aF0.00040760869565217395
aF0.0004981884057971014
aF0.0006340579710144928
aF0.0006793478260869565
aF0.0007246376811594203
aF0.0008152173913043479
aF0.0008605072463768117
aF0.0009510869565217393
aF0.0009963768115942029
aF0.0010416666666666667
aF0.0010869565217391304
aF0.001177536231884058
aF0.0012228260869565218
aF0.0012681159420289856
aF0.0013134057971014492
aF0.001358695652173913
aF0.0014039855072463768
aF0.0014945652173913044
aF0.0015398550724637682
aF0.0016304347826086958
aF0.0016757246376811596
aF0.0017210144927536234
aF0.001766304347826087
aF0.001811594202898551
aF0.0018568840579710145
aF0.0019021739130434786
aF0.0019474637681159421
aF0.002128623188405797
aF0.002173913043478261
aF0.0022192028985507247
aF0.0022644927536231885
aF0.0023097826086956523
aF0.002355072463768116
aF0.00240036231884058
aF0.0024456521739130437
aF0.0024909420289855075
aF0.002581521739130435
aF0.002717391304347826
aF0.0027626811594202902
aF0.0028079710144927536
aF0.0028532608695652174
aF0.002898550724637681
aF0.002943840579710145
aF0.002989130434782609
aF0.0030344202898550726
aF0.0030797101449275364
aF0.0033061594202898554
aF0.003351449275362319
aF0.0033967391304347825
aF0.0034873188405797105
aF0.003532608695652174
aF0.0035778985507246377
aF0.003623188405797102
aF0.0036684782608695657
aF0.003713768115942029
aF0.003759057971014493
aF0.00384963768115942
aF0.0038949275362318843
aF0.004166666666666667
aF0.00421195652173913
aF0.004302536231884058
aF0.004347826086956522
aF0.004438405797101449
aF0.004483695652173913
aF0.004528985507246377
aF0.004574275362318841
aF0.004619565217391305
aF0.004664855072463768
aF0.004755434782608696
aF0.00480072463768116
aF0.004891304347826087
aF0.004981884057971015
aF0.005027173913043479
aF0.005208333333333334
aF0.005253623188405797
aF0.0052989130434782615
aF0.005344202898550725
aF0.005480072463768117
aF0.0055253623188405805
aF0.005570652173913043
aF0.005615942028985507
aF0.005661231884057972
aF0.005706521739130435
aF0.005842391304347827
aF0.005932971014492754
aF0.005978260869565218
aF0.00625
aF0.006340579710144928
aF0.006385869565217393
aF0.006431159420289855
aF0.006521739130434783
aF0.006612318840579711
aF0.0066576086956521745
aF0.006748188405797101
aF0.006793478260869565
aF0.006838768115942029
aF0.0068840579710144935
aF0.006929347826086957
aF0.006974637681159421
aF0.007155797101449275
aF0.007201086956521739
aF0.007246376811594204
aF0.007291666666666668
aF0.007382246376811594
aF0.007427536231884058
aF0.007744565217391305
aF0.007835144927536232
aF0.007880434782608697
aF0.007971014492753623
aF0.008016304347826088
aF0.008197463768115943
aF0.008242753623188407
aF0.008333333333333333
aF0.00842391304347826
aF0.008469202898550725
aF0.008786231884057971
aF0.008831521739130436
aF0.008876811594202899
aF0.008922101449275362
aF0.008967391304347826
aF0.00901268115942029
aF0.009057971014492754
aF0.009103260869565219
aF0.009148550724637682
aF0.009193840579710146
aF0.00923913043478261
aF0.009284420289855072
aF0.009329710144927537
aF0.009375000000000001
aF0.009420289855072464
aF0.009465579710144929
aF0.009510869565217392
aF0.009556159420289855
aF0.00960144927536232
aF0.009692028985507247
aF0.009782608695652175
aF0.00982789855072464
aF0.009918478260869565
aF0.00996376811594203
aF0.010280797101449276
aF0.010371376811594203
aF0.010416666666666668
aF0.010507246376811594
aF0.010597826086956523
aF0.010643115942028986
aF0.010733695652173914
aF0.010778985507246378
aF0.010824275362318841
aF0.010869565217391304
aF0.010914855072463769
aF0.010960144927536233
aF0.011005434782608696
aF0.011186594202898551
aF0.011231884057971014
aF0.011322463768115944
aF0.01141304347826087
aF0.011458333333333334
aF0.011548913043478262
aF0.01163949275362319
aF0.011684782608695654
aF0.01177536231884058
aF0.011820652173913045
aF0.011865942028985508
aF0.011911231884057972
aF0.011956521739130435
aF0.0120018115942029
aF0.012047101449275363
aF0.012228260869565218
aF0.012273550724637683
aF0.012318840579710146
aF0.012364130434782608
aF0.012409420289855073
aF0.012454710144927536
aF0.0125
aF0.012681159420289856
aF0.01272644927536232
aF0.012817028985507246
aF0.01286231884057971
aF0.012907608695652174
aF0.012952898550724637
aF0.012998188405797102
aF0.013043478260869566
aF0.01308876811594203
aF0.013269927536231886
aF0.013315217391304349
aF0.013360507246376814
aF0.013405797101449277
aF0.013451086956521738
aF0.013496376811594202
aF0.013541666666666667
aF0.013858695652173915
aF0.013903985507246377
aF0.013949275362318842
aF0.013994565217391307
aF0.01403985507246377
aF0.014085144927536231
aF0.014130434782608696
aF0.014175724637681159
aF0.014221014492753623
aF0.014266304347826088
aF0.01431159420289855
aF0.014356884057971015
aF0.014402173913043478
aF0.014447463768115943
aF0.014492753623188408
aF0.01453804347826087
aF0.014583333333333335
aF0.014764492753623189
aF0.014809782608695652
aF0.01490036231884058
aF0.014990942028985509
aF0.015036231884057972
aF0.015217391304347828
aF0.015262681159420291
aF0.015443840579710145
aF0.01548913043478261
aF0.015579710144927537
aF0.015896739130434785
aF0.015942028985507246
aF0.016032608695652175
aF0.01644021739130435
aF0.016485507246376815
aF0.016530797101449276
aF0.016576086956521737
aF0.016621376811594202
aF0.016893115942028986
aF0.01693840579710145
aF0.016983695652173916
aF0.01707427536231884
aF0.017346014492753623
aF0.017391304347826087
aF0.017436594202898552
aF0.017527173913043478
aF0.017572463768115942
aF0.018115942028985508
aF0.01852355072463768
aF0.018568840579710144
aF0.01861413043478261
aF0.019021739130434784
aF0.019067028985507245
aF0.019474637681159424
aF0.019519927536231885
aF0.019610507246376814
aF0.020018115942028986
aF0.02006340579710145
aF0.020108695652173915
aF0.020606884057971016
aF0.02065217391304348
aF0.021059782608695652
aF0.021105072463768117
aF0.02115036231884058
aF0.021557971014492756
aF0.021965579710144928
aF0.022146739130434787
aF0.022554347826086958
aF0.022599637681159423
aF0.022644927536231887
aF0.02318840579710145
aF0.023596014492753625
aF0.02364130434782609
aF0.02368659420289855
aF0.024094202898550725
aF0.02509057971014493
aF0.025135869565217392
aF0.025181159420289857
aF0.025679347826086957
aF0.02572463768115942
aF0.026132246376811597
aF0.02617753623188406
aF0.02717391304347826
aF0.027219202898550728
aF0.028170289855072462
aF0.02821557971014493
aF0.02826086956521739
aF0.02866847826086957
aF0.02871376811594203
aF0.02966485507246377
aF0.029710144927536233
aF0.029755434782608697
aF0.0307518115942029
aF0.03079710144927536
aF0.031068840579710145
aF0.03120471014492754
aF0.03125
aF0.0322463768115942
aF0.03229166666666667
aF0.03328804347826087
aF0.03333333333333333
aF0.034782608695652174
aF0.035280797101449275
aa(lp2
F0.0
aF0.013678852836098487
aF0.01656633876572214
aF0.018254783927959678
aF0.0211422698575833
aF0.03002495962413748
aF0.05449517936671072
aF0.05618362452894829
aF0.05907111045857191
aF0.06075955562080945
aF0.0636470415504331
aF0.068932609014829
aF0.07062105417706654
aF0.07230949933930411
aF0.07399794450154165
aF0.08887583810502622
aF0.10015660940635243
aF0.10184505456859
aF0.10353349973082754
aF0.1052219448930651
aF0.11650271619439143
aF0.11819116135662897
aF0.12707385112318315
aF0.1359565408897372
aF0.14603827142367742
aF0.147726716585915
aF0.14941516174815253
aF0.1511036069103901
aF0.15279205207262764
aF0.15448049723486518
aF0.15616894239710274
aF0.17704203983751773
aF0.17873048499975527
aF0.1852150932315373
aF0.19409778299809133
aF0.19578622816032887
aF0.19747467332256644
aF0.19916311848480397
aF0.20085156364704154
aF0.20254000880927908
aF0.21861694318014974
aF0.23589291831840647
aF0.23758136348064404
aF0.2392698086428816
aF0.24215729457250523
aF0.25343806587383155
aF0.2551265110360691
aF0.25681495619830663
aF0.2632995644300885
aF0.26618705035971224
aF0.28825918856751337
aF0.2899476337297509
aF0.29163607889198845
aF0.29692164635638424
aF0.29861009151862183
aF0.3002985366808594
aF0.3115793079821857
aF0.31326775314442323
aF0.31615523907404686
aF0.325037928840601
aF0.32792541477022463
aF0.3332109822346205
aF0.34688983507071897
aF0.3485782802329565
aF0.362257133069055
aF0.36754270053345084
aF0.37162922723046055
aF0.3733176723926981
aF0.3762051583223217
aF0.3826897665541037
aF0.38437821171634123
aF0.3896637791807371
aF0.39614838741251895
aF0.3990358733421426
aF0.40791856310869673
aF0.40960700827093427
aF0.413693534967944
aF0.4369647139431312
aF0.43865315910536873
aF0.44034160426760627
aF0.4420300494298438
aF0.44491753535946754
aF0.4466059805217051
aF0.4482944256839427
aF0.4523809523809524
aF0.4540693975431899
aF0.45815592424019974
aF0.46703861400675384
aF0.47232418147114963
aF0.47401262663338717
aF0.48889052023687174
aF0.4905789653991093
aF0.4958645328635052
aF0.4975529780257427
aF0.5040375862575246
aF0.5069250721871482
aF0.5110115988841579
aF0.5270885332550287
aF0.5287769784172662
aF0.5304654235795038
aF0.5321538687417413
aF0.5338423139039788
aF0.5355307590662165
aF0.5396172857632262
aF0.5544951793667107
aF0.5561836245289482
aF0.5590711104585718
aF0.5607595556208094
aF0.5636470415504331
aF0.5785249351539178
aF0.5802133803161553
aF0.583100866245779
aF0.5859883521754026
aF0.5876767973376401
aF0.5989575686389663
aF0.6006460138012039
aF0.6035334997308275
aF0.6064209856604512
aF0.6081094308226888
aF0.6193902021240152
aF0.6210786472862527
aF0.6227670924484903
aF0.6244555376107278
aF0.6261439827729653
aF0.6314295502373611
aF0.6331179953995987
aF0.6348064405618362
aF0.6364948857240738
aF0.6381833308863113
aF0.642269857583321
aF0.6439583027455587
aF0.6456467479077962
aF0.6473351930700337
aF0.6490236382322714
aF0.6507120833945089
aF0.6524005285567465
aF0.654088973718984
aF0.6569764596486076
aF0.6658591494151618
aF0.6675475945773993
aF0.6704350805070229
aF0.6721235256692606
aF0.6750110115988841
aF0.6838937013654383
aF0.6855821465276758
aF0.6884696324572995
aF0.6913571183869232
aF0.6930455635491607
aF0.6959330494787843
aF0.7012186169431801
aF0.7029070621054176
aF0.7045955072676553
aF0.706283952429893
aF0.7079723975921304
aF0.709660842754368
aF0.7113492879166056
aF0.7142367738462292
aF0.7159252190084667
aF0.7188127049380904
aF0.7205011501003279
aF0.7233886360299515
aF0.7262761219595751
aF0.7279645671218127
aF0.7308520530514363
aF0.7361376205158323
aF0.7378260656780699
aF0.7395145108403074
aF0.7412029560025449
aF0.7428914011647825
aF0.74457984632702
aF0.7462682914892576
aF0.7515538589536535
aF0.753242304115891
aF0.7549307492781285
aF0.7566191944403661
aF0.7583076396026036
aF0.7599960847648413
aF0.7616845299270788
aF0.7645720158567024
aF0.76626046101894
aF0.7715460284833358
aF0.7732344736455733
aF0.7749229188078108
aF0.7766113639700484
aF0.7782998091322859
aF0.7799882542945236
aF0.7816766994567611
aF0.7869622669211569
aF0.7886507120833945
aF0.7903391572456321
aF0.7920276024078696
aF0.7937160475701072
aF0.7954044927323447
aF0.7970929378945824
aF0.799980423824206
aF0.8016688689864435
aF0.8033573141486811
aF0.8050457593109186
aF0.8067342044731562
aF0.8084226496353938
aF0.8101110947976313
aF0.8117995399598689
aF0.8134879851221064
aF0.815176430284344
aF0.8168648754465815
aF0.818553320608819
aF0.8202417657710566
aF0.8219302109332941
aF0.8236186560955316
aF0.8253071012577693
aF0.8269955464200068
aF0.8298830323496306
aF0.8315714775118681
aF0.8344589634414917
aF0.8373464493711154
aF0.8390348945333529
aF0.8407233396955904
aF0.842411784857828
aF0.8452992707874516
aF0.8469877159496892
aF0.8498752018793129
aF0.8515636470415505
aF0.8544511329711741
aF0.8573386189007978
aF0.8590270640630353
aF0.8607155092252728
aF0.8624039543875104
aF0.8640923995497479
aF0.8657808447119855
aF0.867469289874223
aF0.8691577350364605
aF0.8708461801986981
aF0.8737336661283219
aF0.8754221112905595
aF0.877110556452797
aF0.8787990016150345
aF0.8816864875446582
aF0.8833749327068957
aF0.8862624186365193
aF0.8879508637987569
aF0.8896393089609944
aF0.891327754123232
aF0.8930161992854695
aF0.8947046444477071
aF0.8975921303773309
aF0.8992805755395684
aF0.902168061469192
aF0.9038565066314296
aF0.9055449517936671
aF0.9072333969559047
aF0.9089218421181422
aF0.9106102872803797
aF0.9122987324426173
aF0.9139871776048548
aF0.9156756227670924
aF0.9185631086967161
aF0.9202515538589537
aF0.9231390397885774
aF0.9248274849508149
aF0.9265159301130524
aF0.92820437527529
aF0.9310918612049136
aF0.9327803063671511
aF0.9344687515293887
aF0.9361571966916262
aF0.9390446826212498
aF0.9407331277834875
aF0.9424215729457252
aF0.9441100181079627
aF0.9457984632702002
aF0.9474869084324378
aF0.9491753535946753
aF0.9520628395242989
aF0.9537512846865365
aF0.955439729848774
aF0.9571281750110116
aF0.9588166201732491
aF0.9605050653354867
aF0.9621935104977243
aF0.9638819556599618
aF0.9655704008221994
aF0.967258845984437
aF0.9689472911466745
aF0.9706357363089121
aF0.9723241814711496
aF0.9740126266333872
aF0.9757010717956247
aF0.9773895169578622
aF0.9790779621200998
aF0.9819654480497235
aF0.9836538932119611
aF0.9853423383741986
aF0.9882298243038222
aF0.9899182694660598
aa(lp3
F4.533091568449683e-05
aF0.00013599274705349047
aF0.00018132366273798732
aF0.00022665457842248413
aF0.00027198549410698095
aF0.0003173164097914778
aF0.00036264732547597464
aF0.00040797824116047145
aF0.0005893019038984588
aF0.0006346328195829556
aF0.0006799637352674524
aF0.0007252946509519493
aF0.0007706255666364461
aF0.0008159564823209429
aF0.0008612873980054398
aF0.0010426110607434271
aF0.0010879419764279238
aF0.0011786038077969175
aF0.0012239347234814144
aF0.0013145965548504081
aF0.0013599274705349048
aF0.0014052583862194017
aF0.0014505893019038985
aF0.0014959202175883954
aF0.0015412511332728923
aF0.0016319129646418858
aF0.0016772438803263829
aF0.0017225747960108795
aF0.0017679057116953764
aF0.0018585675430643702
aF0.001949229374433364
aF0.0019945602901178605
aF0.0020852221214868543
aF0.002130553037171351
aF0.0021758839528558476
aF0.0022212148685403447
aF0.0022665457842248413
aF0.0023118766999093384
aF0.002357207615593835
aF0.0025385312783318226
aF0.0026291931097008163
aF0.002674524025385313
aF0.0027198549410698096
aF0.0027651858567543067
aF0.0028105167724388033
aF0.0028558476881233004
aF0.002901178603807797
aF0.003037171350861288
aF0.003127833182230281
aF0.0031731640979147783
aF0.003218495013599275
aF0.0032638259292837716
aF0.0033091568449682683
aF0.0033544877606527658
aF0.003445149592021759
aF0.0034904805077062557
aF0.0037171350861287403
aF0.003762466001813237
aF0.0038077969174977336
aF0.0038531278331822303
aF0.003898458748866728
aF0.0039437896645512244
aF0.003989120580235721
aF0.004034451495920218
aF0.004125113327289212
aF0.004170444242973709
aF0.004261106074342702
aF0.0043064369900271985
aF0.004397098821396192
aF0.004533091568449683
aF0.004623753399818677
aF0.00471441523118767
aF0.004759746146872167
aF0.004850407978241161
aF0.004941069809610154
aF0.004986400725294652
aF0.0050317316409791485
aF0.005077062556663645
aF0.005122393472348142
aF0.005167724388032639
aF0.005213055303717136
aF0.005258386219401633
aF0.005303717135086129
aF0.005349048050770626
aF0.0053943789664551225
aF0.005439709882139619
aF0.005666364460562103
aF0.005711695376246601
aF0.0057570262919310975
aF0.005802357207615594
aF0.005847688123300091
aF0.005893019038984588
aF0.005938349954669085
aF0.005983680870353582
aF0.006029011786038078
aF0.006074342701722576
aF0.0061196736174070725
aF0.006165004533091569
aF0.006210335448776066
aF0.006255666364460562
aF0.006300997280145059
aF0.006346328195829557
aF0.006391659111514053
aF0.0067089755213055316
aF0.006754306436990028
aF0.006799637352674525
aF0.0068449682683590215
aF0.006890299184043518
aF0.006935630099728015
aF0.0069809610154125115
aF0.007026291931097008
aF0.007071622846781506
aF0.007162284678150499
aF0.007207615593834996
aF0.007252946509519492
aF0.007298277425203989
aF0.007343608340888486
aF0.007388939256572982
aF0.007434270172257481
aF0.007524932003626474
aF0.007751586582048957
aF0.007842248413417952
aF0.007887579329102449
aF0.007978241160471442
aF0.008023572076155939
aF0.008068902991840435
aF0.008114233907524932
aF0.00815956482320943
aF0.008204895738893927
aF0.008250226654578424
aF0.00829555757026292
aF0.008340888485947417
aF0.008386219401631914
aF0.00843155031731641
aF0.008476881233000907
aF0.008658204895738894
aF0.008748866727107887
aF0.008794197642792384
aF0.008884859474161379
aF0.009111514052583862
aF0.009202175883952855
aF0.009247506799637354
aF0.009338168631006347
aF0.009383499546690844
aF0.009474161378059837
aF0.00956482320942883
aF0.009610154125113329
aF0.009700815956482322
aF0.009746146872166819
aF0.009791477787851315
aF0.009836808703535812
aF0.009882139619220309
aF0.009927470534904805
aF0.009972801450589304
aF0.01029011786038078
aF0.010335448776065279
aF0.010380779691749775
aF0.010426110607434272
aF0.010471441523118769
aF0.010516772438803265
aF0.010562103354487762
aF0.010743427017225748
aF0.010788757932910245
aF0.010834088848594742
aF0.010879419764279238
aF0.010924750679963735
aF0.010970081595648232
aF0.011015412511332728
aF0.011060743427017227
aF0.011106074342701723
aF0.01115140525838622
aF0.011196736174070717
aF0.011242067089755213
aF0.01128739800543971
aF0.011332728921124207
aF0.011378059836808703
aF0.011423390752493202
aF0.011468721668177698
aF0.011650045330915685
aF0.011695376246600182
aF0.01187669990933817
aF0.011922030825022667
aF0.011967361740707163
aF0.01201269265639166
aF0.012058023572076157
aF0.012239347234814145
aF0.012330009066183138
aF0.012375339981867635
aF0.012466001813236628
aF0.012692656391659113
aF0.01273798730734361
aF0.012783318223028107
aF0.012828649138712603
aF0.0128739800543971
aF0.012919310970081596
aF0.012964641885766093
aF0.013372620126926563
aF0.013417951042611063
aF0.013508612873980056
aF0.013689936536718043
aF0.01373526745240254
aF0.013780598368087036
aF0.013825929283771533
aF0.01387126019945603
aF0.013916591115140526
aF0.013961922030825023
aF0.01400725294650952
aF0.014279238440616501
aF0.014324569356300998
aF0.014505893019038985
aF0.014551223934723481
aF0.014596554850407978
aF0.014777878513145964
aF0.014823209428830461
aF0.014868540344514961
aF0.014913871260199458
aF0.015004533091568451
aF0.015049864007252948
aF0.015367180417044424
aF0.015457842248413418
aF0.015503173164097914
aF0.015820489573889394
aF0.015911151405258388
aF0.015956482320942884
aF0.016047144152311878
aF0.016364460562103358
aF0.016409791477787854
aF0.016500453309156848
aF0.01659111514052584
aF0.016953762466001814
aF0.01699909338168631
aF0.017044424297370808
aF0.017089755213055304
aF0.0171350861287398
aF0.017316409791477787
aF0.017361740707162284
aF0.01740707162284678
aF0.017452402538531277
aF0.017497733454215774
aF0.01754306436990027
aF0.017588395285584767
aF0.01799637352674524
aF0.018041704442429737
aF0.018359020852221214
aF0.018540344514959204
aF0.0185856754306437
aF0.018631006346328197
aF0.018902991840435177
aF0.018948322756119674
aF0.01899365367180417
aF0.019038984587488667
aF0.019084315503173164
aF0.019492293744333637
aF0.019537624660018134
aF0.019900271985494107
aF0.019945602901178607
aF0.019990933816863104
aF0.020081595648232097
aF0.020126926563916594
aF0.020534904805077064
aF0.02058023572076156
aF0.021078875793291027
aF0.021124206708975524
aF0.02116953762466002
aF0.02157751586582049
aF0.021622846781504987
aF0.021894832275611967
aF0.021940163191296463
aF0.02198549410698096
aF0.022030825022665457
aF0.022076155938349953
aF0.02257479601087942
aF0.022620126926563917
aF0.022665457842248413
aF0.023073436083408887
aF0.023118766999093383
aF0.02361740707162285
aF0.023662737987307347
aF0.023708068902991843
aF0.024116047144152313
aF0.02416137805983681
aF0.024569356300997283
aF0.02461468721668178
aF0.02515865820489574
aF0.025203989120580236
aF0.026065276518585673
aF0.026110607434270173
aF0.02660924750679964
aF0.026654578422484133
aF0.026699909338168633
aF0.027107887579329106
aF0.0271532184950136
aF0.028105167724388033
aF0.028150498640072533
aF0.028195829555757026
aF0.0286038077969175
aF0.028649138712601996
aF0.02960108794197643
aF0.029646418857660922
aF0.029691749773345422
aF0.030689029918404356
aF0.03073436083408885
aF0.031550317316409796
aF0.03173164097914778
aF0.03177697189483227
aF0.033680870353581145
aF0.03372620126926564
aF0.0343155031731641
aF0.03522212148685404
aF0.03680870353581142
aF0.036854034451495925
aF0.03875793291024479
aa(lp4
F0.0
aF0.0027867342238599296
aF0.013956701980654088
aF0.015545831414094935
aF0.017134960847535657
aF0.01872409028097652
aF0.026301243666513097
aF0.027890373099953944
aF0.05462920313219717
aF0.05621833256563791
aF0.05780746199907874
aF0.05939659143251959
aF0.06098572086596042
aF0.06856287425149701
aF0.07015200368493786
aF0.08491478581298939
aF0.08650391524643024
aF0.10006909258406267
aF0.10165822201750341
aF0.10564256103178263
aF0.10723169046522336
aF0.11361123906034086
aF0.11879318286503918
aF0.12996315062183322
aF0.13155228005527408
aF0.14990787655458318
aF0.1514970059880239
aF0.15308613542146476
aF0.1546752648549056
aF0.16704283740211884
aF0.1782128051589129
aF0.18099953938277294
aF0.2017503454629203
aF0.20333947489636117
aF0.20492860432980187
aF0.20651773376324273
aF0.2081068631966836
aF0.2096959926301243
aF0.21128512206356515
aF0.23203592814371254
aF0.23362505757715338
aF0.248387839705205
aF0.24997696913864575
aF0.25156609857208656
aF0.2531552280055274
aF0.25474435743896817
aF0.256333486872409
aF0.2722938737908798
aF0.2966374942422847
aF0.2982266236757255
aF0.29981575310916625
aF0.3014048825426071
aF0.3029940119760479
aF0.30817595578074625
aF0.309765085214187
aF0.31853984339014274
aF0.33929064947029014
aF0.340879778903731
aF0.3424689083371718
aF0.34405803777061267
aF0.3456471672040534
aF0.3532243205895901
aF0.35481345002303083
aF0.36358820819898663
aF0.36517733763242743
aF0.3799401197604791
aF0.38272685398433903
aF0.38431598341777984
aF0.3871027176416398
aF0.3970750806080148
aF0.41543067710732373
aF0.4170198065407646
aF0.41980654076462465
aF0.42259327498848454
aF0.4241824044219254
aF0.4293643482266237
aF0.43095347766006453
aF0.43853063104560114
aF0.440119760479042
aF0.4417088899124827
aF0.45287885766927677
aF0.45446798710271763
aF0.45605711653615844
aF0.4576462459695993
aF0.45923537540304016
aF0.46082450483648085
aF0.48516812528788583
aF0.4867572547213266
aF0.4883463841547674
aF0.48993551358820814
aF0.49152464302164894
aF0.4931137724550898
aF0.49470290188853067
aF0.4962920313219715
aF0.4978811607554122
aF0.4994702901888531
aF0.516628281897743
aF0.5182174113311837
aF0.5198065407646245
aF0.5213956701980654
aF0.5229847996315062
aF0.524573929064947
aF0.5261630584983878
aF0.5469138645785352
aF0.548502994011976
aF0.5500921234454169
aF0.5516812528788577
aF0.5532703823122984
aF0.5584523261169968
aF0.5600414555504376
aF0.5616305849838784
aF0.5632197144173192
aF0.5779824965453708
aF0.5795716259788116
aF0.5811607554122524
aF0.5827498848456932
aF0.5843390142791339
aF0.5859281437125748
aF0.5875172731460157
aF0.5903040073698756
aF0.6062643942883464
aF0.6090511285122063
aF0.6106402579456471
aF0.6158222017503455
aF0.6174113311837863
aF0.6190004606172271
aF0.6205895900506679
aF0.6221787194841086
aF0.6333486872409028
aF0.6349378166743436
aF0.6365269461077845
aF0.6381160755412253
aF0.6397052049746661
aF0.6412943344081068
aF0.6428834638415476
aF0.6576462459695993
aF0.65923537540304
aF0.6620221096269
aF0.66480884385076
aF0.6711883924458775
aF0.6727775218793183
aF0.681552280055274
aF0.684339014279134
aF0.6859281437125748
aF0.6887148779364348
aF0.6915016121602948
aF0.6930907415937356
aF0.6982726853984338
aF0.6998618148318747
aF0.7014509442653155
aF0.7030400736987563
aF0.7046292031321971
aF0.7062183325656379
aF0.7078074619990788
aF0.7165822201750346
aF0.7181713496084753
aF0.7197604790419161
aF0.721349608475357
aF0.7229387379087978
aF0.7245278673422386
aF0.7261169967756794
aF0.7312989405803777
aF0.7328880700138185
aF0.7344771994472593
aF0.7360663288807001
aF0.737655458314141
aF0.7392445877475817
aF0.7408337171810225
aF0.7424228466144633
aF0.7440119760479043
aF0.745601105481345
aF0.7471902349147858
aF0.7487793643482267
aF0.7503684937816674
aF0.7519576232151082
aF0.7535467526485491
aF0.7551358820819899
aF0.7567250115154306
aF0.7595117457392907
aF0.7611008751727314
aF0.7626900046061722
aF0.7642791340396131
aF0.7658682634730539
aF0.7674573929064946
aF0.7690465223399355
aF0.7718332565637954
aF0.7734223859972362
aF0.7762091202210963
aF0.7789958544449562
aF0.7817825886688161
aF0.783371718102257
aF0.7849608475356978
aF0.7865499769691386
aF0.7881391064025794
aF0.7897282358360203
aF0.7913173652694611
aF0.7929064947029019
aF0.7956932289267619
aF0.7984799631506218
aF0.8000690925840627
aF0.8016582220175035
aF0.8032473514509442
aF0.8048364808843851
aF0.8064256103178259
aF0.8080147397512667
aF0.8096038691847075
aF0.8111929986181483
aF0.8127821280515891
aF0.8143712574850299
aF0.8159603869184707
aF0.8175495163519115
aF0.8191386457853524
aF0.8219253800092123
aF0.8235145094426531
aF0.825103638876094
aF0.8266927683095348
aF0.8294795025333948
aF0.8310686319668356
aF0.8338553661906956
aF0.8366421004145554
aF0.8382312298479964
aF0.8410179640718562
aF0.8426070935052971
aF0.845393827729157
aF0.848180561953017
aF0.8497696913864579
aF0.8525564256103179
aF0.8553431598341777
aF0.8569322892676186
aF0.8585214187010595
aF0.8601105481345003
aF0.861699677567941
aF0.8632888070013819
aF0.8648779364348227
aF0.8664670658682634
aF0.8680561953017043
aF0.8696453247351451
aF0.8712344541685859
aF0.8728235836020267
aF0.8744127130354675
aF0.8760018424689083
aF0.8787885766927683
aF0.8803777061262091
aF0.883164440350069
aF0.8847535697835099
aF0.8863426992169507
aF0.8879318286503914
aF0.8895209580838324
aF0.8911100875172732
aF0.892699216950714
aF0.8942883463841548
aF0.8958774758175956
aF0.8974666052510364
aF0.8990557346844772
aF0.900644864117918
aF0.9022339935513588
aF0.9038231229847997
aF0.9066098572086596
aF0.9081989866421004
aF0.9097881160755412
aF0.911377245508982
aF0.9129663749424228
aF0.9145555043758636
aF0.9161446338093044
aF0.9177337632427452
aF0.919322892676186
aF0.920912022109627
aF0.9225011515430677
aF0.9240902809765085
aF0.9256794104099494
aF0.9272685398433901
aF0.9288576692768309
aF0.9304467987102718
aF0.9320359281437126
aF0.9336250575771533
aF0.9352141870105942
aF0.936803316444035
aF0.9383924458774757
aF0.9399815753109166
aF0.9427683095347766
aF0.9443574389682173
aF0.9459465684016582
aF0.9475356978350991
aF0.9503224320589589
aF0.9519115614923999
aF0.9535006909258407
aF0.9550898203592814
aF0.9566789497927223
aF0.9582680792261631
aF0.9598572086596038
aF0.9614463380930447
aF0.9630354675264855
aF0.9646245969599263
aF0.9662137263933671
aF0.9678028558268079
aF0.9693919852602487
aF0.9709811146936895
aF0.9725702441271303
aF0.9741593735605711
aF0.9757485029940121
aF0.9773376324274528
aF0.9789267618608936
aF0.9805158912943345
aF0.9821050207277752
aF0.983694150161216
aF0.9852832795946569
aF0.9868724090280977
aF0.9884615384615384
aF0.9912482726853985
aF0.9940350069092584
aF0.9956241363426992
aF0.9984108705665592
aa(lp5
F4.528985507246377e-05
aF0.0001358695652173913
aF0.00018115942028985507
aF0.00022644927536231887
aF0.0002717391304347826
aF0.0003170289855072464
aF0.00036231884057971015
aF0.000588768115942029
aF0.0006793478260869565
aF0.0007246376811594203
aF0.0007699275362318841
aF0.0008152173913043479
aF0.0008605072463768117
aF0.0009057971014492755
aF0.0009510869565217393
aF0.0011322463768115942
aF0.001177536231884058
aF0.0012228260869565218
aF0.0012681159420289856
aF0.0013134057971014492
aF0.001358695652173913
aF0.0014039855072463768
aF0.0014945652173913044
aF0.0015398550724637682
aF0.001585144927536232
aF0.0016304347826086958
aF0.001766304347826087
aF0.0018568840579710145
aF0.0019474637681159421
aF0.0020833333333333333
aF0.0024456521739130437
aF0.0025362318840579713
aF0.002581521739130435
aF0.0026268115942028984
aF0.0026721014492753626
aF0.0027626811594202902
aF0.0028532608695652174
aF0.002898550724637681
aF0.002943840579710145
aF0.002989130434782609
aF0.0030344202898550726
aF0.003125
aF0.003170289855072464
aF0.0032155797101449273
aF0.0032608695652173916
aF0.0033061594202898554
aF0.003351449275362319
aF0.0033967391304347825
aF0.0034420289855072467
aF0.0034873188405797105
aF0.003532608695652174
aF0.0035778985507246377
aF0.003623188405797102
aF0.0036684782608695657
aF0.003713768115942029
aF0.003759057971014493
aF0.003804347826086957
aF0.00384963768115942
aF0.0038949275362318843
aF0.0039402173913043485
aF0.004121376811594204
aF0.004166666666666667
aF0.00421195652173913
aF0.004257246376811594
aF0.004347826086956522
aF0.004393115942028986
aF0.004438405797101449
aF0.004483695652173913
aF0.004619565217391305
aF0.004710144927536232
aF0.004755434782608696
aF0.00480072463768116
aF0.0048460144927536235
aF0.004936594202898551
aF0.004981884057971015
aF0.005027173913043479
aF0.0050724637681159425
aF0.005117753623188406
aF0.00516304347826087
aF0.005253623188405797
aF0.0052989130434782615
aF0.005389492753623189
aF0.005615942028985507
aF0.005661231884057972
aF0.005706521739130435
aF0.005751811594202899
aF0.005797101449275362
aF0.005842391304347827
aF0.00588768115942029
aF0.005932971014492754
aF0.005978260869565218
aF0.006023550724637681
aF0.006068840579710145
aF0.006114130434782609
aF0.006159420289855073
aF0.0062047101449275366
aF0.00625
aF0.006295289855072464
aF0.006340579710144928
aF0.006385869565217393
aF0.006431159420289855
aF0.006521739130434783
aF0.006567028985507247
aF0.0066576086956521745
aF0.006702898550724638
aF0.006793478260869565
aF0.0068840579710144935
aF0.006929347826086957
aF0.007110507246376812
aF0.007155797101449275
aF0.007246376811594204
aF0.007291666666666668
aF0.0073369565217391314
aF0.007382246376811594
aF0.0075634057971014496
aF0.007608695652173914
aF0.00769927536231884
aF0.007744565217391305
aF0.007835144927536232
aF0.00792572463768116
aF0.007971014492753623
aF0.00806159420289855
aF0.008197463768115943
aF0.008242753623188407
aF0.008288043478260869
aF0.008333333333333333
aF0.008378623188405798
aF0.00842391304347826
aF0.008740942028985508
aF0.008786231884057971
aF0.008831521739130436
aF0.008876811594202899
aF0.008967391304347826
aF0.00901268115942029
aF0.009193840579710146
aF0.00923913043478261
aF0.009284420289855072
aF0.009329710144927537
aF0.009375000000000001
aF0.009420289855072464
aF0.009465579710144929
aF0.009646739130434782
aF0.009692028985507247
aF0.009782608695652175
aF0.009873188405797102
aF0.009918478260869565
aF0.010099637681159422
aF0.010144927536231885
aF0.01032608695652174
aF0.010371376811594203
aF0.010461956521739132
aF0.01068840579710145
aF0.010733695652173914
aF0.010778985507246378
aF0.010824275362318841
aF0.010869565217391304
aF0.010914855072463769
aF0.010960144927536233
aF0.011141304347826087
aF0.011186594202898551
aF0.011367753623188407
aF0.01141304347826087
aF0.011458333333333334
aF0.011503623188405797
aF0.011548913043478262
aF0.011730072463768115
aF0.011911231884057972
aF0.011956521739130435
aF0.0120018115942029
aF0.012182971014492755
aF0.012273550724637683
aF0.012318840579710146
aF0.012409420289855073
aF0.012454710144927536
aF0.012590579710144928
aF0.012635869565217393
aF0.012681159420289856
aF0.01286231884057971
aF0.012907608695652174
aF0.012952898550724637
aF0.012998188405797102
aF0.013315217391304349
aF0.013360507246376814
aF0.013405797101449277
aF0.013451086956521738
aF0.013496376811594202
aF0.01381340579710145
aF0.013858695652173915
aF0.013903985507246377
aF0.013949275362318842
aF0.013994565217391307
aF0.01403985507246377
aF0.014085144927536231
aF0.014356884057971015
aF0.014402173913043478
aF0.014447463768115943
aF0.014492753623188408
aF0.01453804347826087
aF0.014809782608695652
aF0.014855072463768116
aF0.01490036231884058
aF0.014945652173913044
aF0.014990942028985509
aF0.01539855072463768
aF0.015443840579710145
aF0.01548913043478261
aF0.015534420289855072
aF0.01585144927536232
aF0.015896739130434785
aF0.015942028985507246
aF0.01598731884057971
aF0.016304347826086956
aF0.01634963768115942
aF0.016394927536231885
aF0.01644021739130435
aF0.016485507246376815
aF0.016530797101449276
aF0.016576086956521737
aF0.016621376811594202
aF0.016893115942028986
aF0.01693840579710145
aF0.016983695652173916
aF0.017028985507246377
aF0.01707427536231884
aF0.017346014492753623
aF0.017391304347826087
aF0.017436594202898552
aF0.017481884057971016
aF0.017527173913043478
aF0.017934782608695653
aF0.017980072463768117
aF0.018070652173913043
aF0.0182518115942029
aF0.018297101449275363
aF0.018342391304347828
aF0.018387681159420292
aF0.018432971014492757
aF0.01847826086956522
aF0.01852355072463768
aF0.018568840579710144
aF0.01884057971014493
aF0.018885869565217393
aF0.018931159420289858
aF0.018976449275362323
aF0.019021739130434784
aF0.019293478260869565
aF0.01933876811594203
aF0.019519927536231885
aF0.01956521739130435
aF0.019610507246376814
aF0.019791666666666666
aF0.01983695652173913
aF0.019882246376811595
aF0.01992753623188406
aF0.019972826086956524
aF0.020018115942028986
aF0.02006340579710145
aF0.020471014492753625
aF0.020516304347826086
aF0.02056159420289855
aF0.020606884057971016
aF0.02065217391304348
aF0.020923913043478265
aF0.020969202898550726
aF0.021014492753623187
aF0.021059782608695652
aF0.021105072463768117
aF0.0213768115942029
aF0.021422101449275366
aF0.021467391304347827
aF0.02151268115942029
aF0.021557971014492756
aF0.021965579710144928
aF0.022010869565217393
aF0.022056159420289857
aF0.022101449275362322
aF0.022418478260869568
aF0.02246376811594203
aF0.022509057971014493
aF0.022554347826086958
aF0.022599637681159423
aF0.023007246376811594
aF0.02305253623188406
aF0.02314311594202899
aF0.02355072463768116
aF0.023596014492753625
aF0.02364130434782609
aF0.02391304347826087
aF0.023958333333333335
aF0.0240036231884058
aF0.024048913043478264
aF0.024094202898550725
aF0.02459239130434783
aF0.02463768115942029
aF0.025045289855072463
aF0.02509057971014493
aF0.025135869565217392
aF0.02554347826086957
aF0.02558876811594203
aF0.025679347826086957
aF0.026086956521739132
aF0.026132246376811597
aF0.026539855072463772
aF0.026585144927536233
aF0.0271286231884058
aF0.02717391304347826
aF0.027445652173913045
aF0.0276268115942029
aF0.028170289855072462
aF0.02821557971014493
aF0.0286231884057971
aF0.02866847826086957
aF0.02966485507246377
aF0.029710144927536233
aF0.030117753623188404
aF0.030163043478260872
aF0.030661231884057973
aF0.030706521739130434
aF0.0307518115942029
aF0.03161231884057971
aF0.03165760869565217
aF0.03215579710144927
aF0.03220108695652174
aF0.0322463768115942
aF0.03369565217391304
aF0.03374094202898551
aF0.035144927536231885
aF0.035190217391304346
aF0.035235507246376814
aF0.036231884057971016
aF0.03627717391304348
aF0.03722826086956522
aF0.037273550724637686
aF0.03731884057971015
aF0.03817934782608696
aF0.03822463768115942
aF0.03858695652173913
aF0.03876811594202899
aF0.03881340579710145
aF0.03976449275362319
aF0.03980978260869566
aF0.03985507246376812
aF0.0417572463768116
aF0.04180253623188406
aF0.0473731884057971
aF0.04741847826086957
aF0.04746376811594203
aF0.04891304347826087
aa(lp6
F0.0
aF0.015954657725159055
aF0.017503553145396145
aF0.01905244856563311
aF0.0206013439858702
aF0.025751679982337752
aF0.027300575402574842
aF0.055260035048502146
aF0.058009410660816094
aF0.05955830608105307
aF0.06110720150129016
aF0.06505705730568086
aF0.06660595272591793
aF0.07175628872238549
aF0.07330518414262258
aF0.09646272302024256
aF0.09801161844047965
aF0.09956051386071672
aF0.1011094092809537
aF0.1026583047011908
aF0.11381104165804254
aF0.11535993707827961
aF0.12411171365097763
aF0.12566060907121473
aF0.13321190545183587
aF0.13476080087207298
aF0.14351257744477097
aF0.14986339363331538
aF0.15141228905355247
aF0.18777511004401756
aF0.1905244856563315
aF0.19327386126864535
aF0.19482275668888244
aF0.2347870182555781
aF0.2363359136758152
aF0.239085289288129
aF0.25023802624498076
aF0.2517869216652178
aF0.25333581708545494
aF0.2548847125056919
aF0.25643360792592895
aF0.2807916269956258
aF0.28234052241586294
aF0.2838894178361
aF0.28543831325633695
aF0.28698720867657407
aF0.29453850505719537
aF0.2960874004774323
aF0.30123773647389984
aF0.30278663189413696
aF0.304335527314374
aF0.3118868236949952
aF0.31343571911523227
aF0.3269894164562376
aF0.3285383118764747
aF0.3300872072967118
aF0.3316361027169489
aF0.3331849981371859
aF0.33473389355742295
aF0.33628278897766006
aF0.35343792689489595
aF0.36699162423590126
aF0.3685405196561384
aF0.3712898952684522
aF0.3728387906886893
aF0.37438768610892637
aF0.37593658152916337
aF0.38468835810186147
aF0.4066454167874046
aF0.40939479239971854
aF0.41094368781995566
aF0.4124925832401926
aF0.41404147866042973
aF0.41919181465689725
aF0.4207407100771343
aF0.42228960549737143
aF0.42743994149383885
aF0.42898883691407597
aF0.44014157387092767
aF0.4416904692911648
aF0.4444398449034786
aF0.44718922051579246
aF0.46194339804887474
aF0.46949469442949593
aF0.471043589849733
aF0.4725924852699701
aF0.47414138069020717
aF0.47569027611044423
aF0.47723917153068124
aF0.47878806695091836
aF0.4803369623711553
aF0.48188585779139237
aF0.4834347532116295
aF0.488585089208097
aF0.49013398462833413
aF0.49768528100895537
aF0.4992341764291924
aF0.5007830718494295
aF0.5023319672696664
aF0.5038808626899035
aF0.5090311986863711
aF0.5105800941066081
aF0.513329469718922
aF0.5220812462916201
aF0.5236301417118571
aF0.526379517324171
aF0.529128892936485
aF0.5306777883567221
aF0.5418305253135737
aF0.5433794207338107
aF0.5461287963461247
aF0.5476776917663617
aF0.5492265871865988
aF0.5507754826068358
aF0.552324378027073
aF0.5574747140235404
aF0.5602240896358543
aF0.5617729850560914
aF0.5645223606684053
aF0.5672717362807191
aF0.5688206317009562
aF0.5715700073132701
aF0.5779208235018144
aF0.5794697189220516
aF0.5810186143422886
aF0.5825675097625257
aF0.5841164051827628
aF0.5856653006029999
aF0.5920161167915442
aF0.5935650122117813
aF0.5951139076320183
aF0.5966628030522554
aF0.5994121786645693
aF0.6009610740848064
aF0.6025099695050433
aF0.6040588649252805
aF0.6056077603455176
aF0.6071566557657546
aF0.6087055511859917
aF0.6102544466062287
aF0.6118033420264657
aF0.6145527176387796
aF0.6161016130590167
aF0.6188509886713306
aF0.6216003642836446
aF0.6231492597038816
aF0.6246981551241186
aF0.6262470505443556
aF0.6277959459645928
aF0.6305453215769067
aF0.6332946971892206
aF0.6360440728015344
aF0.6375929682217714
aF0.6391418636420085
aF0.6406907590622456
aF0.6422396544824827
aF0.6437885499027197
aF0.6453374453229569
aF0.6480868209352707
aF0.6496357163555077
aF0.6511846117757447
aF0.6527335071959819
aF0.654282402616219
aF0.655831298036456
aF0.6573801934566931
aF0.6601295690690069
aF0.661678464489244
aF0.663227359909481
aF0.6647762553297181
aF0.667525630942032
aF0.6690745263622692
aF0.671823901974583
aF0.6733727973948199
aF0.674921692815057
aF0.6764705882352942
aF0.6780194836555312
aF0.6795683790757683
aF0.6811172744960053
aF0.6826661699162423
aF0.6842150653364795
aF0.6869644409487933
aF0.6885133363690303
aF0.6900622317892674
aF0.6916111272095046
aF0.6931600226297416
aF0.6947089180499786
aF0.6974582936622925
aF0.6990071890825296
aF0.7005560845027666
aF0.7021049799230037
aF0.7036538753432408
aF0.7052027707634778
aF0.7067516661837149
aF0.7083005616039519
aF0.709849457024189
aF0.711398352444426
aF0.7129472478646631
aF0.7144961432849002
aF0.7160450387051372
aF0.7175939341253743
aF0.7191428295456114
aF0.7206917249658484
aF0.7222406203860855
aF0.7237895158063224
aF0.7253384112265595
aF0.7268873066467967
aF0.7296366822591106
aF0.7311855776793476
aF0.7327344730995846
aF0.7342833685198218
aF0.7370327441321356
aF0.7385816395523727
aF0.7401305349726097
aF0.7416794303928469
aF0.7432283258130838
aF0.7447772212333209
aF0.746326116653558
aF0.7478750120737949
aF0.7494239074940321
aF0.7509728029142692
aF0.7525216983345062
aF0.7540705937547433
aF0.7556194891749803
aF0.7571683845952174
aF0.7587172800154545
aF0.7602661754356914
aF0.7618150708559286
aF0.7633639662761657
aF0.7649128616964027
aF0.7676622373087165
aF0.7692111327289537
aF0.7719605083412675
aF0.7735094037615046
aF0.7750582991817416
aF0.7766071946019788
aF0.7781560900222159
aF0.7797049854424528
aF0.7812538808626899
aF0.7828027762829269
aF0.784351671703164
aF0.7859005671234011
aF0.7874494625436381
aF0.7889983579638752
aF0.7905472533841124
aF0.7920961488043493
aF0.7936450442245864
aF0.7951939396448234
aF0.7967428350650605
aF0.7982917304852976
aF0.7998406259055346
aF0.8025900015178485
aF0.8041388969380856
aF0.8056877923583227
aF0.8072366877785597
aF0.8087855831987968
aF0.8103344786190337
aF0.8118833740392709
aF0.813432269459508
aF0.814981164879745
aF0.8165300602999821
aF0.818078955720219
aF0.8196278511404562
aF0.8211767465606933
aF0.8227256419809302
aF0.8242745374011673
aF0.8258234328214045
aF0.8273723282416415
aF0.8289212236618786
aF0.8304701190821155
aF0.8320190145023527
aF0.8335679099225898
aF0.8351168053428267
aF0.8366657007630638
aF0.838214596183301
aF0.839763491603538
aF0.8425128672158518
aF0.8440617626360889
aF0.845610658056326
aF0.847159553476563
aF0.8487084488968001
aF0.8502573443170371
aF0.8530067199293511
aF0.8545556153495881
aF0.857304990961902
aF0.858853886382139
aF0.8604027818023761
aF0.8619516772226132
aF0.8635005726428503
aF0.8650494680630874
aF0.8665983634833243
aF0.8681472589035615
aF0.8696961543237985
aF0.8712450497440355
aF0.8727939451642726
aF0.8743428405845096
aF0.8758917360047468
aF0.8774406314249839
aF0.8801900070372977
aF0.8817389024575347
aF0.8844882780698486
aF0.8860371734900857
aF0.8875860689103228
aF0.8891349643305598
aF0.8918843399428737
aF0.8934332353631108
aF0.8949821307833478
aF0.8965310262035848
aF0.8992804018158987
aF0.9008292972361359
aF0.9035786728484497
aF0.9051275682686868
aF0.9066764636889239
aF0.9082253591091609
aF0.9109747347214748
aF0.9125236301417119
aF0.9140725255619488
aF0.915621420982186
aF0.9171703164024231
aF0.9187192118226601
aF0.9202681072428971
aF0.9218170026631342
aF0.9233658980833713
aF0.9249147935036084
aF0.9264636889238453
aF0.9280125843440824
aF0.9295614797643196
aF0.9311103751845566
aF0.9326592706047936
aF0.9342081660250307
aF0.9357570614452678
aF0.9373059568655049
aF0.9388548522857418
aF0.9404037477059789
aF0.9419526431262161
aF0.9435015385464531
aF0.9450504339666901
aF0.9465993293869271
aF0.9481482248071642
aF0.9496971202274014
aF0.9512460156476383
aF0.9527949110678754
aF0.9543438064881125
aF0.9558927019083496
aF0.9574415973285866
aF0.9589904927488236
aF0.9605393881690607
aF0.9620882835892979
aF0.9648376592016117
aa(lp7
F4.528985507246377e-05
aF9.057971014492754e-05
aF0.0001358695652173913
aF0.00022644927536231887
aF0.0002717391304347826
aF0.0003170289855072464
aF0.00036231884057971015
aF0.000588768115942029
aF0.0006793478260869565
aF0.0007699275362318841
aF0.0008152173913043479
aF0.0010869565217391304
aF0.001177536231884058
aF0.0012681159420289856
aF0.0013134057971014492
aF0.001358695652173913
aF0.0014039855072463768
aF0.0014492753623188406
aF0.0014945652173913044
aF0.0015398550724637682
aF0.001585144927536232
aF0.0016304347826086958
aF0.0018568840579710145
aF0.0019021739130434786
aF0.0019474637681159421
aF0.0020833333333333333
aF0.002128623188405797
aF0.002173913043478261
aF0.0022192028985507247
aF0.00240036231884058
aF0.0024456521739130437
aF0.0026268115942028984
aF0.0026721014492753626
aF0.002717391304347826
aF0.0027626811594202902
aF0.0028079710144927536
aF0.0028532608695652174
aF0.002898550724637681
aF0.003125
aF0.0032155797101449273
aF0.0033061594202898554
aF0.003351449275362319
aF0.0034420289855072467
aF0.0034873188405797105
aF0.003532608695652174
aF0.0035778985507246377
aF0.0036684782608695657
aF0.003713768115942029
aF0.003759057971014493
aF0.003804347826086957
aF0.00384963768115942
aF0.0038949275362318843
aF0.0039402173913043485
aF0.004121376811594204
aF0.004166666666666667
aF0.00421195652173913
aF0.004257246376811594
aF0.004302536231884058
aF0.004347826086956522
aF0.004393115942028986
aF0.004438405797101449
aF0.004483695652173913
aF0.004528985507246377
aF0.004619565217391305
aF0.004710144927536232
aF0.00480072463768116
aF0.0048460144927536235
aF0.004936594202898551
aF0.004981884057971015
aF0.005027173913043479
aF0.0050724637681159425
aF0.00516304347826087
aF0.005253623188405797
aF0.0052989130434782615
aF0.005389492753623189
aF0.005434782608695652
aF0.005615942028985507
aF0.005661231884057972
aF0.005751811594202899
aF0.005842391304347827
aF0.00588768115942029
aF0.006114130434782609
aF0.006159420289855073
aF0.0062047101449275366
aF0.00625
aF0.006295289855072464
aF0.006340579710144928
aF0.006431159420289855
aF0.0064764492753623185
aF0.006521739130434783
aF0.006567028985507247
aF0.006612318840579711
aF0.0066576086956521745
aF0.006702898550724638
aF0.006748188405797101
aF0.006793478260869565
aF0.0068840579710144935
aF0.006929347826086957
aF0.007110507246376812
aF0.007155797101449275
aF0.007201086956521739
aF0.007246376811594204
aF0.007291666666666668
aF0.0073369565217391314
aF0.007382246376811594
aF0.00769927536231884
aF0.0077898550724637685
aF0.007835144927536232
aF0.00792572463768116
aF0.008016304347826088
aF0.00806159420289855
aF0.008152173913043478
aF0.008197463768115943
aF0.008242753623188407
aF0.008288043478260869
aF0.008333333333333333
aF0.008378623188405798
aF0.00842391304347826
aF0.008740942028985508
aF0.008786231884057971
aF0.008831521739130436
aF0.008876811594202899
aF0.008922101449275362
aF0.008967391304347826
aF0.00901268115942029
aF0.009193840579710146
aF0.00923913043478261
aF0.009284420289855072
aF0.009329710144927537
aF0.009375000000000001
aF0.009420289855072464
aF0.009465579710144929
aF0.009646739130434782
aF0.009692028985507247
aF0.009782608695652175
aF0.00982789855072464
aF0.009873188405797102
aF0.009918478260869565
aF0.010144927536231885
aF0.010190217391304348
aF0.010235507246376813
aF0.010280797101449276
aF0.01032608695652174
aF0.010371376811594203
aF0.010416666666666668
aF0.010461956521739132
aF0.010507246376811594
aF0.010552536231884058
aF0.010597826086956523
aF0.010643115942028986
aF0.01068840579710145
aF0.010733695652173914
aF0.010778985507246378
aF0.010824275362318841
aF0.010869565217391304
aF0.010914855072463769
aF0.010960144927536233
aF0.011277173913043479
aF0.011322463768115944
aF0.011367753623188407
aF0.01141304347826087
aF0.011503623188405797
aF0.011730072463768115
aF0.01177536231884058
aF0.011820652173913045
aF0.011865942028985508
aF0.011911231884057972
aF0.011956521739130435
aF0.0120018115942029
aF0.012182971014492755
aF0.012228260869565218
aF0.012318840579710146
aF0.012409420289855073
aF0.012454710144927536
aF0.012635869565217393
aF0.012681159420289856
aF0.01286231884057971
aF0.012907608695652174
aF0.012998188405797102
aF0.013224637681159421
aF0.013269927536231886
aF0.013315217391304349
aF0.013360507246376814
aF0.013405797101449277
aF0.013451086956521738
aF0.013496376811594202
aF0.01381340579710145
aF0.013858695652173915
aF0.013903985507246377
aF0.013949275362318842
aF0.013994565217391307
aF0.01403985507246377
aF0.014085144927536231
aF0.014356884057971015
aF0.014402173913043478
aF0.014447463768115943
aF0.014492753623188408
aF0.01453804347826087
aF0.014809782608695652
aF0.014855072463768116
aF0.01490036231884058
aF0.014945652173913044
aF0.014990942028985509
aF0.015534420289855072
aF0.01585144927536232
aF0.015896739130434785
aF0.01598731884057971
aF0.016394927536231885
aF0.016576086956521737
aF0.016893115942028986
aF0.01693840579710145
aF0.016983695652173916
aF0.017028985507246377
aF0.017436594202898552
aF0.017481884057971016
aF0.017527173913043478
aF0.017934782608695653
aF0.017980072463768117
aF0.01802536231884058
aF0.018070652173913043
aF0.018115942028985508
aF0.01852355072463768
aF0.018931159420289858
aF0.018976449275362323
aF0.019021739130434784
aF0.01942934782608696
aF0.019474637681159424
aF0.019519927536231885
aF0.01956521739130435
aF0.019610507246376814
aF0.020018115942028986
aF0.02056159420289855
aF0.020606884057971016
aF0.020923913043478265
aF0.020969202898550726
aF0.021014492753623187
aF0.021059782608695652
aF0.021467391304347827
aF0.02151268115942029
aF0.021557971014492756
aF0.022101449275362322
aF0.022509057971014493
aF0.022554347826086958
aF0.022599637681159423
aF0.023097826086956524
aF0.02314311594202899
aF0.02355072463768116
aF0.023596014492753625
aF0.02364130434782609
aF0.024048913043478264
aF0.02459239130434783
aF0.02463768115942029
aF0.025045289855072463
aF0.02509057971014493
aF0.025362318840579712
aF0.02554347826086957
aF0.02558876811594203
aF0.025634057971014493
aF0.025679347826086957
aF0.02604166666666667
aF0.026132246376811597
aF0.026449275362318843
aF0.026494565217391304
aF0.026585144927536233
aF0.026992753623188405
aF0.027038043478260873
aF0.027083333333333334
aF0.0271286231884058
aF0.02717391304347826
aF0.027445652173913045
aF0.027490942028985513
aF0.027536231884057974
aF0.027581521739130435
aF0.0276268115942029
aF0.028034420289855075
aF0.02807971014492754
aF0.028125
aF0.028170289855072462
aF0.02821557971014493
aF0.028487318840579715
aF0.028532608695652176
aF0.02857789855072464
aF0.0286231884057971
aF0.02866847826086957
aF0.028940217391304347
aF0.028985507246376815
aF0.029030797101449277
aF0.02907608695652174
aF0.029121376811594202
aF0.02916666666666667
aF0.029574275362318842
aF0.02966485507246377
aF0.029710144927536233
aF0.030117753623188404
aF0.030163043478260872
aF0.030570652173913044
aF0.030615942028985512
aF0.030661231884057973
aF0.030706521739130434
aF0.0307518115942029
aF0.031114130434782613
aF0.03120471014492754
aF0.03161231884057971
aF0.03165760869565217
aF0.03251811594202899
aF0.03265398550724637
aF0.03269927536231884
aF0.03369565217391304
aF0.03374094202898551
aF0.034782608695652174
aF0.03568840579710145
aF0.037273550724637686
aF0.03731884057971015
aF0.03922101449275363
aF0.03926630434782609
aa(lp8
F0.0
aF0.001615815987073388
aF0.01640528466875768
aF0.01802110065583118
aF0.02083452143332376
aF0.026043151791654756
aF0.027658967778728255
aF0.0592149035262807
aF0.06202832430377342
aF0.0636441402908468
aF0.07244558502043524
aF0.08843265849253873
aF0.10322212717422291
aF0.10483794316129641
aF0.10765136393878899
aF0.11884801824921584
aF0.12046383423628934
aF0.12207965022336273
aF0.12848588537211292
aF0.13010170135918642
aF0.1317175173462598
aF0.1345309381237525
aF0.14932040680543668
aF0.15093622279251018
aF0.17171371542629021
aF0.1972816272217469
aF0.19889744320882044
aF0.20051325919589394
aF0.20212907518296733
aF0.21093051991255576
aF0.2125463358996293
aF0.24170706206634346
aF0.24332287805341696
aF0.24493869404049046
aF0.24655451002756384
aF0.24817032601463734
aF0.2557741659538066
aF0.2573899819408801
aF0.2889459176884327
aF0.2917593384659253
aF0.2933751544529988
aF0.29618857523049136
aF0.3013972055888223
aF0.3030130215758958
aF0.3046288375629693
aF0.31582549187339604
aF0.33061496055508033
aF0.3322307765421537
aF0.3338465925292272
aF0.3354624085163007
aF0.3370782245033741
aF0.3386940404904476
aF0.3403098564775211
aF0.35749453474004367
aF0.3710863986313088
aF0.3727022146183822
aF0.3743180306054557
aF0.3759338465925292
aF0.3775496625796027
aF0.3791654785666761
aF0.3807812945537496
aF0.3823971105408231
aF0.38401292652789654
aF0.40598802395209577
aF0.40880144472958846
aF0.41041726071666196
aF0.41323068149415454
aF0.4184393118524855
aF0.420055127839559
aF0.4216709438266324
aF0.42687957418496336
aF0.43927383328580927
aF0.44088964927288277
aF0.44370307005037535
aF0.4453188860374489
aF0.4469347020245224
aF0.46531698507746416
aF0.46693280106453755
aF0.46974622184203013
aF0.4725596426195228
aF0.4741754586065963
aF0.48297690333618476
aF0.48459271932325826
aF0.4898013496815891
aF0.49141716566866267
aF0.49303298165573617
aF0.49464879764280967
aF0.4998574280011405
aF0.501473243988214
aF0.5030890599752875
aF0.504704875962361
aF0.5063206919494344
aF0.5139245318886038
aF0.5155403478756772
aF0.5171561638627507
aF0.5199695846402432
aF0.5215854006273167
aF0.5232012166143902
aF0.5320026613439787
aF0.5336184773310522
aF0.5352342933181256
aF0.5368501093051992
aF0.5384659252922726
aF0.5400817412793459
aF0.5416975572664195
aF0.5540918163672655
aF0.555707632354339
aF0.5585210531318315
aF0.5613344739093242
aF0.5629502898963977
aF0.5657637106738903
aF0.5709723410322213
aF0.5725881570192948
aF0.5742039730063682
aF0.5758197889934417
aF0.577435604980515
aF0.5790514209675885
aF0.580667236954662
aF0.5894686816842505
aF0.591084497671324
aF0.5927003136583975
aF0.5943161296454709
aF0.5959319456325444
aF0.5975477616196178
aF0.5991635776066914
aF0.6043722079650223
aF0.6059880239520958
aF0.6076038399391692
aF0.6092196559262427
aF0.6108354719133162
aF0.6124512879003897
aF0.6140671038874632
aF0.6228685486170517
aF0.6244843646041252
aF0.6272977853816176
aF0.6289136013686911
aF0.6305294173557646
aF0.6321452333428381
aF0.6349586541203308
aF0.6365744701074042
aF0.6381902860944776
aF0.6398061020815511
aF0.6414219180686246
aF0.6430377340556981
aF0.6446535500427717
aF0.6462693660298451
aF0.6478851820169185
aF0.6495009980039919
aF0.6511168139910655
aF0.652732629978139
aF0.6543484459652125
aF0.655964261952286
aF0.6575800779393595
aF0.6591958939264329
aF0.6608117099135062
aF0.6624275259005797
aF0.6640433418876532
aF0.6704495770364033
aF0.6720653930234768
aF0.6736812090105503
aF0.6752970249976238
aF0.6781104457751165
aF0.680923866552609
aF0.6825396825396824
aF0.684155498526756
aF0.6857713145138294
aF0.6873871305009029
aF0.6890029464879763
aF0.6906187624750498
aF0.6934321832525425
aF0.695047999239616
aF0.6978614200171087
aF0.7006748407946013
aF0.7022906567816748
aF0.7039064727687482
aF0.7055222887558217
aF0.7083357095333144
aF0.7099515255203878
aF0.7127649462978805
aF0.715578367075373
aF0.7171941830624465
aF0.71880999904952
aF0.7204258150365934
aF0.7220416310236669
aF0.7236574470107404
aF0.7252732629978138
aF0.7280866837753065
aF0.72970249976238
aF0.7313183157494534
aF0.7329341317365269
aF0.7345499477236004
aF0.7361657637106738
aF0.7377815796977474
aF0.7393973956848209
aF0.7410132116718944
aF0.7426290276589678
aF0.7442448436460413
aF0.7458606596331148
aF0.7474764756201882
aF0.7490922916072617
aF0.7507081075943352
aF0.7523239235814086
aF0.753939739568482
aF0.7567531603459747
aF0.7583689763330481
aF0.7611823971105408
aF0.7639958178880334
aF0.7656116338751069
aF0.7684250546525995
aF0.770040870639673
aF0.7716566866267465
aF0.77327250261382
aF0.7760859233913125
aF0.777701739378386
aF0.7793175553654594
aF0.780933371352533
aF0.7825491873396065
aF0.78416500332668
aF0.7857808193137534
aF0.7873966353008269
aF0.7890124512879004
aF0.791825872065393
aF0.7934416880524665
aF0.79505750403954
aF0.7966733200266134
aF0.7982891360136869
aF0.7999049520007604
aF0.8015207679878338
aF0.8031365839749073
aF0.8047523999619808
aF0.8075658207394734
aF0.8091816367265469
aF0.8119950575040394
aF0.8136108734911129
aF0.8152266894781864
aF0.8168425054652599
aF0.8196559262427525
aF0.8212717422298261
aF0.8228875582168995
aF0.824503374203973
aF0.8273167949814657
aF0.8289326109685391
aF0.8305484269556126
aF0.8321642429426861
aF0.8337800589297595
aF0.835395874916833
aF0.8370116909039065
aF0.83862750689098
aF0.8402433228780534
aF0.8430567436555461
aF0.8446725596426194
aF0.8474859804201121
aF0.8491017964071856
aF0.850717612394259
aF0.8523334283813325
aF0.853949244368406
aF0.8555650603554794
aF0.8571808763425529
aF0.8587966923296264
aF0.8604125083167
aF0.8632259290941926
aF0.8660393498716852
aF0.8676551658587587
aF0.8704685866362514
aF0.8720844026233248
aF0.8737002186103983
aF0.8753160345974718
aF0.8769318505845451
aF0.8785476665716186
aF0.8801634825586921
aF0.8817792985457656
aF0.883395114532839
aF0.8850109305199125
aF0.886626746506986
aF0.8882425624940594
aF0.8898583784811329
aF0.8914741944682064
aF0.8930900104552799
aF0.8947058264423533
aF0.8963216424294268
aF0.8979374584165003
aF0.8995532744035737
aF0.9011690903906473
aF0.9027849063777208
aF0.9044007223647943
aF0.9060165383518677
aF0.9076323543389412
aF0.9092481703260147
aF0.9108639863130881
aF0.9124798023001616
aF0.9152932230776543
aF0.9169090390647276
aF0.9197224598422203
aF0.9213382758292937
aF0.9229540918163672
aF0.9245699078034407
aF0.9261857237905142
aF0.9278015397775876
aF0.9294173557646611
aF0.9310331717517346
aF0.9326489877388081
aF0.9354624085163007
aF0.9370782245033742
aF0.9386940404904476
aF0.9403098564775212
aF0.9419256724645947
aF0.9435414884516682
aF0.9451573044387416
aF0.9467731204258151
aF0.9483889364128886
aF0.9512023571903812
aF0.9540157779678738
aF0.9556315939549472
aF0.9572474099420207
aF0.9588632259290942
aa.