(lp0
(lp1
F9.057971014492754e-05
aF0.0001358695652173913
aF0.00018115942028985507
aF0.0002717391304347826
aF0.0003170289855072464
aF0.0004981884057971014
aF0.0005434782608695652
aF0.000588768115942029
aF0.0006340579710144928
aF0.0006793478260869565
aF0.0007246376811594203
aF0.0007699275362318841
aF0.0008152173913043479
aF0.0008605072463768117
aF0.0009057971014492755
aF0.0009510869565217393
aF0.0010869565217391304
aF0.001177536231884058
aF0.0012228260869565218
aF0.0013134057971014492
aF0.001358695652173913
aF0.0014039855072463768
aF0.0014492753623188406
aF0.0016304347826086958
aF0.0016757246376811596
aF0.001766304347826087
aF0.001811594202898551
aF0.0018568840579710145
aF0.0019021739130434786
aF0.0019474637681159421
aF0.0019927536231884057
aF0.0020380434782608695
aF0.002128623188405797
aF0.0022192028985507247
aF0.0022644927536231885
aF0.0023097826086956523
aF0.002355072463768116
aF0.0024456521739130437
aF0.0024909420289855075
aF0.0025362318840579713
aF0.002581521739130435
aF0.0026721014492753626
aF0.002717391304347826
aF0.0028079710144927536
aF0.002898550724637681
aF0.002943840579710145
aF0.002989130434782609
aF0.0030344202898550726
aF0.0030797101449275364
aF0.003125
aF0.003170289855072464
aF0.0032608695652173916
aF0.003351449275362319
aF0.0033967391304347825
aF0.0034873188405797105
aF0.0035778985507246377
aF0.003623188405797102
aF0.00384963768115942
aF0.0038949275362318843
aF0.0039402173913043485
aF0.004030797101449275
aF0.004076086956521739
aF0.004121376811594204
aF0.004166666666666667
aF0.00421195652173913
aF0.004302536231884058
aF0.004347826086956522
aF0.004528985507246377
aF0.004574275362318841
aF0.004619565217391305
aF0.004664855072463768
aF0.004710144927536232
aF0.004755434782608696
aF0.0048460144927536235
aF0.004891304347826087
aF0.004981884057971015
aF0.005208333333333334
aF0.005253623188405797
aF0.005344202898550725
aF0.005389492753623189
aF0.005434782608695652
aF0.005480072463768117
aF0.0055253623188405805
aF0.005570652173913043
aF0.005615942028985507
aF0.005661231884057972
aF0.005706521739130435
aF0.005751811594202899
aF0.005797101449275362
aF0.006159420289855073
aF0.0062047101449275366
aF0.00625
aF0.006340579710144928
aF0.006385869565217393
aF0.006431159420289855
aF0.0064764492753623185
aF0.006521739130434783
aF0.006612318840579711
aF0.0066576086956521745
aF0.007065217391304348
aF0.007110507246376812
aF0.007155797101449275
aF0.007291666666666668
aF0.0073369565217391314
aF0.007427536231884058
aF0.007472826086956522
aF0.007518115942028986
aF0.007608695652173914
aF0.007653985507246378
aF0.007744565217391305
aF0.008106884057971015
aF0.008197463768115943
aF0.008288043478260869
aF0.008333333333333333
aF0.008378623188405798
aF0.008469202898550725
aF0.008514492753623188
aF0.008559782608695653
aF0.008605072463768116
aF0.008650362318840579
aF0.008695652173913044
aF0.008740942028985508
aF0.008786231884057971
aF0.008831521739130436
aF0.008876811594202899
aF0.008922101449275362
aF0.00901268115942029
aF0.009057971014492754
aF0.009103260869565219
aF0.009148550724637682
aF0.009193840579710146
aF0.009646739130434782
aF0.009782608695652175
aF0.00982789855072464
aF0.009873188405797102
aF0.009918478260869565
aF0.00996376811594203
aF0.010009057971014493
aF0.010054347826086957
aF0.010099637681159422
aF0.010144927536231885
aF0.010190217391304348
aF0.01032608695652174
aF0.010371376811594203
aF0.010416666666666668
aF0.010507246376811594
aF0.010552536231884058
aF0.010643115942028986
aF0.011322463768115944
aF0.01141304347826087
aF0.011458333333333334
aF0.011548913043478262
aF0.011730072463768115
aF0.01177536231884058
aF0.011820652173913045
aF0.012092391304347826
aF0.01213768115942029
aF0.012318840579710146
aF0.012364130434782608
aF0.012952898550724637
aF0.012998188405797102
aF0.013134057971014494
aF0.013179347826086957
aF0.013360507246376814
aF0.013405797101449277
aF0.013451086956521738
aF0.01358695652173913
aF0.013632246376811595
aF0.01381340579710145
aF0.013858695652173915
aF0.013903985507246377
aF0.014447463768115943
aF0.014628623188405798
aF0.014673913043478263
aF0.014855072463768116
aF0.01490036231884058
aF0.015217391304347828
aF0.015307971014492756
aF0.016032608695652175
aF0.016077898550724636
aF0.0161231884057971
aF0.016168478260869566
aF0.01634963768115942
aF0.016394927536231885
aF0.01644021739130435
aF0.01684782608695652
aF0.017028985507246377
aF0.01707427536231884
aF0.017119565217391306
aF0.017753623188405798
aF0.017798913043478262
aF0.017844202898550723
aF0.017889492753623188
aF0.018342391304347828
aF0.018750000000000003
aF0.018795289855072464
aF0.01884057971014493
aF0.019791666666666666
aF0.01983695652173913
aF0.019882246376811595
aF0.020969202898550726
aF0.021014492753623187
aF0.03396739130434783
aF0.03401268115942029
aF0.034057971014492754
aF0.035507246376811595
aF0.0365036231884058
aF0.03654891304347826
aF0.03754528985507247
aF0.03759057971014493
aF0.03872282608695653
aF0.03876811594202899
aF0.0396286231884058
aF0.04048913043478261
aF0.04053442028985507
aF0.04057971014492754
aF0.0411231884057971
aF0.042119565217391304
aF0.04216485507246377
aF0.04221014492753623
aF0.043568840579710146
aF0.043614130434782614
aF0.044112318840579715
aF0.044157608695652176
aF0.04515398550724638
aF0.045199275362318846
aF0.04678442028985508
aa(lp2
F0.0
aF0.0019649478654961416
aF0.011124140335308785
aF0.013089088200804927
aF0.02224828067061768
aF0.037402676977360855
aF0.039367624842856996
aF0.04133257270835314
aF0.0492927244107797
aF0.05125767227627584
aF0.05681974244393023
aF0.058784690309426485
aF0.06074963817492263
aF0.06870978987734919
aF0.07067473774284533
aF0.07623680791049972
aF0.09259024498462898
aF0.10174943745444173
aF0.10371438531993787
aF0.10927645548759227
aF0.11124140335308841
aF0.11920155505551511
aF0.12116650292101122
aF0.14591322536684306
aF0.14787817323233923
aF0.15703736570215185
aF0.1590023135676481
aF0.16096726143314427
aF0.16533029083341255
aF0.1672952386989087
aF0.16926018656440486
aF0.17122513442990098
aF0.18757857150403023
aF0.19314064167168465
aF0.1951055895371808
aF0.1970705374026769
aF0.20862781140726186
aF0.2177870038770745
aF0.21975195174257062
aF0.2217168996080668
aF0.22368184747356304
aF0.24243336608246444
aF0.2443983139479606
aF0.25355750641777325
aF0.2591195765854276
aF0.2610845244509238
aF0.26304947231641995
aF0.26861154248407443
aF0.27057649034957054
aF0.2725414382150667
aF0.2745063860805629
aF0.2872627008525338
aF0.28922764871803
aF0.29838684118784264
aF0.30754603365765537
aF0.30951098152315154
aF0.31867017399296416
aF0.3374216926018656
aF0.3393866404673618
aF0.34494871063501625
aF0.34691365850051237
aF0.3524757286681668
aF0.35444067653366296
aF0.3600027467013173
aF0.36196769456681344
aF0.36752976473446797
aF0.36949471259996414
aF0.38464910890670717
aF0.3866140567722033
aF0.38857900463769945
aF0.3965391563401261
aF0.39850410420562227
aF0.40406617437327674
aF0.4060311222387729
aF0.4151903147085856
aF0.4183543033414678
aF0.43710582195036923
aF0.43907076981586535
aF0.4446328399835199
aF0.446597787849016
aF0.45215985801667036
aF0.4541248058821665
aF0.4560897537476627
aF0.4580547016131588
aF0.4600196494786549
aF0.46438267887892326
aF0.46634762674441943
aF0.46831257460991554
aF0.47387464477756996
aF0.4902280818516993
aF0.4921930297171955
aF0.49775509988484984
aF0.499720047750346
aF0.5052821179180004
aF0.5072470657834965
aF0.512809135951151
aF0.514774083816647
aF0.5203361539843014
aF0.5223011018497977
aF0.5398535796913131
aF0.5418185275568091
aF0.5473805977244636
aF0.5493455455899597
aF0.5525095342228419
aF0.5556735228557241
aF0.5576384707212203
aF0.5643995816562609
aF0.5663645295217571
aF0.5695285181546392
aF0.5726925067875215
aF0.5890459438616508
aF0.5946080140293052
aF0.5965729618948012
aF0.5985379097602974
aF0.6005028576257936
aF0.6036668462586758
aF0.6056317941241719
aF0.6075967419896681
aF0.6107607306225504
aF0.6127256784880466
aF0.6146906263535427
aF0.6166555742190388
aF0.618620522084535
aF0.6205854699500312
aF0.6225504178155274
aF0.6245153656810235
aF0.6264803135465197
aF0.6284452614120158
aF0.6304102092775119
aF0.6323751571430081
aF0.6343401050085042
aF0.6506935420826334
aF0.6526584899481296
aF0.6546234378136256
aF0.6565883856791219
aF0.6585533335446181
aF0.6605182814101143
aF0.6624832292756103
aF0.6644481771411065
aF0.6664131250066027
aF0.6683780728720987
aF0.6703430207375949
aF0.6723079686030912
aF0.6742729164685873
aF0.6762378643340834
aF0.6794018529669656
aF0.6813668008324618
aF0.6845307894653441
aF0.697287104237315
aF0.7004510928701971
aF0.7024160407356934
aF0.7055800293685757
aF0.7075449772340718
aF0.7095099250995679
aF0.7114748729650641
aF0.7134398208305602
aF0.7154047686960564
aF0.7173697165615525
aF0.7205337051944347
aF0.7296928976642475
aF0.7316578455297436
aF0.7336227933952397
aF0.7355877412607359
aF0.7375526891262321
aF0.7395176369917282
aF0.7414825848572243
aF0.7434475327227205
aF0.7454124805882166
aF0.7473774284537127
aF0.7493423763192089
aF0.751307324184705
aF0.7580684351197456
aF0.7600333829852418
aF0.7619983308507379
aF0.763963278716234
aF0.7671272673491163
aF0.7702912559819985
aF0.7722562038474947
aF0.7778182740151491
aF0.7797832218806453
aF0.7817481697461415
aF0.7837131176116375
aF0.7856780654771337
aF0.7876430133426299
aF0.789607961208126
aF0.7927719498410082
aF0.7947368977065044
aF0.7967018455720005
aF0.7986667934374967
aF0.8006317413029927
aF0.8025966891684889
aF0.8045616370339851
aF0.8077256256668675
aF0.8108896142997496
aF0.8128545621652458
aF0.8148195100307419
aF0.8167844578962381
aF0.8187494057617342
aF0.8207143536272303
aF0.8226793014927265
aF0.8246442493582227
aF0.8266091972237188
aF0.828574145089215
aF0.8305390929547112
aF0.8325040408202073
aF0.8356680294530895
aF0.8376329773185857
aF0.8407969659514679
aF0.8427619138169641
aF0.8447268616824601
aF0.8478908503153424
aF0.8498557981808386
aF0.8530197868137208
aF0.8549847346792169
aF0.856949682544713
aF0.8589146304102092
aF0.8620786190430916
aF0.8640435669085876
aF0.8660085147740838
aF0.86797346263958
aF0.8711374512724622
aF0.8731023991379583
aF0.8750673470034545
aF0.8770322948689506
aF0.8801962835018329
aF0.882161231367329
aF0.8853252200002113
aa(lp3
F0.00018132366273798732
aF0.00022665457842248413
aF0.00027198549410698095
aF0.0003173164097914778
aF0.00036264732547597464
aF0.00045330915684496827
aF0.0004986400725294651
aF0.0008159564823209429
aF0.0009066183136899365
aF0.0009519492293744334
aF0.0009972801450589303
aF0.0010426110607434271
aF0.0010879419764279238
aF0.0011332728921124207
aF0.0011786038077969175
aF0.0012239347234814144
aF0.0012692656391659113
aF0.0013145965548504081
aF0.0014959202175883954
aF0.0015865820489573892
aF0.0016319129646418858
aF0.0016772438803263829
aF0.0017225747960108795
aF0.0017679057116953764
aF0.0018585675430643702
aF0.0019945602901178605
aF0.0020398912058023576
aF0.0020852221214868543
aF0.002130553037171351
aF0.0022665457842248413
aF0.002357207615593835
aF0.002447869446962829
aF0.0025385312783318226
aF0.0025838621940163196
aF0.002674524025385313
aF0.002901178603807797
aF0.002991840435176791
aF0.003037171350861288
aF0.0030825022665457846
aF0.003127833182230281
aF0.003218495013599275
aF0.0032638259292837716
aF0.0033091568449682683
aF0.0033544877606527658
aF0.0033998186763372624
aF0.0035811423390752495
aF0.003626473254759746
aF0.003671804170444243
aF0.0037171350861287403
aF0.003762466001813237
aF0.0038077969174977336
aF0.003898458748866728
aF0.0039437896645512244
aF0.003989120580235721
aF0.004034451495920218
aF0.004079782411604715
aF0.004170444242973709
aF0.004397098821396192
aF0.004442429737080689
aF0.004487760652765186
aF0.004533091568449683
aF0.004623753399818677
aF0.0046690843155031735
aF0.00471441523118767
aF0.004759746146872167
aF0.004805077062556664
aF0.004850407978241161
aF0.005213055303717136
aF0.005258386219401633
aF0.005303717135086129
aF0.005349048050770626
aF0.005439709882139619
aF0.005485040797824116
aF0.005530371713508613
aF0.00557570262919311
aF0.005621033544877607
aF0.005666364460562103
aF0.005711695376246601
aF0.0057570262919310975
aF0.005802357207615594
aF0.0061196736174070725
aF0.006210335448776066
aF0.006255666364460562
aF0.006300997280145059
aF0.006346328195829557
aF0.00643699002719855
aF0.0064823209428830466
aF0.006527651858567543
aF0.00657298277425204
aF0.0066183136899365365
aF0.0067089755213055316
aF0.006935630099728015
aF0.0069809610154125115
aF0.007026291931097008
aF0.007071622846781506
aF0.007116953762466002
aF0.007162284678150499
aF0.007207615593834996
aF0.007252946509519492
aF0.007298277425203989
aF0.007343608340888486
aF0.007388939256572982
aF0.007434270172257481
aF0.007479601087941977
aF0.007524932003626474
aF0.007570262919310971
aF0.007615593834995467
aF0.0077062556663644605
aF0.007751586582048957
aF0.008114233907524932
aF0.00815956482320943
aF0.008204895738893927
aF0.00829555757026292
aF0.008340888485947417
aF0.00843155031731641
aF0.008522212148685404
aF0.0085675430643699
aF0.008658204895738894
aF0.00870353581142339
aF0.008748866727107887
aF0.008794197642792384
aF0.00883952855847688
aF0.008884859474161379
aF0.008930190389845875
aF0.008975521305530372
aF0.009020852221214869
aF0.009338168631006347
aF0.009383499546690844
aF0.009474161378059837
aF0.009519492293744334
aF0.00956482320942883
aF0.009610154125113329
aF0.009655485040797825
aF0.009700815956482322
aF0.009746146872166819
aF0.009791477787851315
aF0.009836808703535812
aF0.009882139619220309
aF0.009927470534904805
aF0.009972801450589304
aF0.0100181323662738
aF0.010063463281958297
aF0.010108794197642794
aF0.01015412511332729
aF0.010199456029011787
aF0.010244786944696284
aF0.01029011786038078
aF0.010335448776065279
aF0.010380779691749775
aF0.010426110607434272
aF0.010970081595648232
aF0.011015412511332728
aF0.011060743427017227
aF0.011106074342701723
aF0.01115140525838622
aF0.01128739800543971
aF0.011332728921124207
aF0.011378059836808703
aF0.011423390752493202
aF0.011468721668177698
aF0.011514052583862195
aF0.011559383499546692
aF0.011604714415231188
aF0.011650045330915685
aF0.011695376246600182
aF0.011740707162284678
aF0.011786038077969177
aF0.011831368993653673
aF0.01187669990933817
aF0.011922030825022667
aF0.011967361740707163
aF0.01201269265639166
aF0.012058023572076157
aF0.012692656391659113
aF0.01273798730734361
aF0.012919310970081596
aF0.012964641885766093
aF0.013055303717135086
aF0.013100634632819583
aF0.01314596554850408
aF0.013191296464188576
aF0.013372620126926563
aF0.013417951042611063
aF0.013553943789664553
aF0.013644605621033546
aF0.014324569356300998
aF0.014369900271985495
aF0.014415231187669991
aF0.014460562103354488
aF0.014641885766092474
aF0.014687216681776971
aF0.014868540344514961
aF0.014913871260199458
aF0.015095194922937444
aF0.015140525838621941
aF0.015321849501359928
aF0.015367180417044424
aF0.015956482320942884
aF0.01600181323662738
aF0.016183136899365368
aF0.016364460562103358
aF0.016409791477787854
aF0.01645512239347235
aF0.01672710788757933
aF0.016772438803263828
aF0.017452402538531277
aF0.017633726201269264
aF0.01767905711695376
aF0.017724388032638257
aF0.01786038077969175
aF0.017905711695376247
aF0.018177697189483227
aF0.018223028105167724
aF0.01826835902085222
aF0.019038984587488667
aF0.019084315503173164
aF0.01912964641885766
aF0.019174977334542157
aF0.019220308250226657
aF0.019401631912964644
aF0.019809610154125114
aF0.01985494106980961
aF0.019900271985494107
aF0.020806890299184047
aF0.020988213961922034
aF0.02103354487760653
aF0.02130553037171351
aF0.021350861287398007
aF0.021396192203082504
aF0.021804170444242973
aF0.02184950135992747
aF0.022393472348141433
aF0.02243880326382593
aF0.022846781504986403
aF0.0228921124206709
aF0.022937443336355397
aF0.02343608340888486
aF0.023481414324569357
aF0.02402538531278332
aF0.024070716228467817
aF0.0243427017225748
aF0.024388032638259297
aF0.025611967361740706
aF0.025657298277425206
aF0.026427923844061653
aF0.026473254759746146
aF0.027923844061650046
aF0.027969174977334546
aF0.04510426110607435
aF0.04514959202175884
aF0.04764279238440616
aF0.047688123300090667
aF0.0486854034451496
aF0.04873073436083409
aa(lp4
F0.0
aF0.0018812768164457594
aF0.00855297279456832
aF0.01043424961101419
aF0.01590834079871753
aF0.021382431986420786
aF0.023263708802866656
aF0.04191145268518079
aF0.04499033429204577
aF0.049266820689329915
aF0.051148097505775814
aF0.05901739827431743
aF0.0608986750907633
aF0.0627799519072092
aF0.06825404309491254
aF0.0701353199113583
aF0.0720165967278042
aF0.07389787354425006
aF0.08895280305530662
aF0.09083407987175252
aF0.09630817105945585
aF0.09818944787590173
aF0.1012683294827667
aF0.10434721108963177
aF0.11461172143901169
aF0.12008581262671503
aF0.1219670894431609
aF0.1238483662596068
aF0.12572964307605256
aF0.13958696779669003
aF0.14865387335565086
aF0.1553255693337734
aF0.15720684615021915
aF0.16747135649959918
aF0.17055023810646425
aF0.18680277240794
aF0.19227686359564336
aF0.19415814041208912
aF0.196039417228535
aF0.20151350841623836
aF0.20459239002310334
aF0.2088688764203876
aF0.21075015323683335
aF0.21861945400537508
aF0.22050073082182087
aF0.23555566033287753
aF0.2374369371493234
aF0.2393182139657692
aF0.24359470036305345
aF0.2454759771794992
aF0.25454288273846004
aF0.25642415955490594
aF0.26189825074260925
aF0.26377952755905515
aF0.26925361874675835
aF0.27113489556320425
aF0.27421377717006934
aF0.2892687066811259
aF0.2911499834975718
aF0.29662407468527513
aF0.29850535150172086
aF0.30397944268942423
aF0.3058607195058701
aF0.307741996322316
aF0.3132160875100194
aF0.3150973643264651
aF0.32057145551416844
aF0.3392191993964826
aF0.3411004762129285
aF0.34657456740063175
aF0.34845584421707765
aF0.35392993540478096
aF0.35581121222122686
aF0.3576924890376726
aF0.3595737658541185
aF0.3614550426705644
aF0.36692913385826775
aF0.3688104106747135
aF0.3706916874911594
aF0.3749681738884435
aF0.3912207081899193
aF0.3931019850063652
aF0.39857607619406854
aF0.4004573530105144
aF0.40593144419821775
aF0.4078127210146636
aF0.41328681220236685
aF0.41516808901881275
aF0.4206421802065161
aF0.4225234570229619
aF0.42560233862982694
aF0.43826205856004524
aF0.4401433353764911
aF0.44202461219293687
aF0.44630109859022116
aF0.448182375406667
aF0.45365646659437026
aF0.45553774341081615
aF0.457419020227262
aF0.4593002970437079
aF0.4611815738601537
aF0.4630628506765995
aF0.4649441274930453
aF0.46682540430949115
aF0.46870668112593705
aF0.47058795794238295
aF0.4760620491300862
aF0.4779433259465321
aF0.48102220755339714
aF0.49368192748361545
aF0.4955632043000612
aF0.5010372954877647
aF0.5029185723042104
aF0.5059974539110754
aF0.5090763355179405
aF0.5109576123343863
aF0.5140364939412513
aF0.5195105851289546
aF0.5213918619454005
aF0.5232731387618464
aF0.5251544155782922
aF0.5270356923947381
aF0.5289169692111838
aF0.5307982460276297
aF0.5326795228440756
aF0.5345607996605215
aF0.5472205195907398
aF0.5491017964071856
aF0.5521806780140506
aF0.5540619548304965
aF0.5559432316469424
aF0.5602197180442264
aF0.5621009948606723
aF0.5639822716771181
aF0.565863548493564
aF0.5677448253100099
aF0.5696261021264557
aF0.5715073789429016
aF0.5733886557593474
aF0.5752699325757933
aF0.5771512093922391
aF0.579032486208685
aF0.5809137630251309
aF0.5827950398415767
aF0.5846763166580226
aF0.5865575934744683
aF0.5884388702909141
aF0.59032014710736
aF0.5922014239238059
aF0.5940827007402518
aF0.6091376302513084
aF0.6110189070677543
aF0.6129001838842001
aF0.6147814607006459
aF0.6166627375170918
aF0.6185440143335376
aF0.6204252911499835
aF0.6223065679664294
aF0.6241878447828753
aF0.626069121599321
aF0.6279503984157669
aF0.6298316752322127
aF0.6317129520486585
aF0.6335942288651044
aF0.6354755056815503
aF0.6373567824979961
aF0.639238059314442
aF0.6411193361308879
aF0.6430006129473337
aF0.6448818897637795
aF0.6467631665802254
aF0.6486444433966712
aF0.650525720213117
aF0.6643830449337544
aF0.6662643217502003
aF0.6693432033570654
aF0.6712244801735113
aF0.6743033617803762
aF0.676184638596822
aF0.6780659154132679
aF0.6799471922297138
aF0.6818284690461597
aF0.6837097458626056
aF0.6855910226790514
aF0.6886699042859162
aF0.6977368098448771
aF0.699618086661323
aF0.7014993634777689
aF0.7033806402942148
aF0.7052619171106607
aF0.7083407987175255
aF0.7102220755339714
aF0.7121033523504172
aF0.7139846291668631
aF0.7170635107737282
aF0.718944787590174
aF0.7208260644066198
aF0.7274977603847423
aF0.7293790372011881
aF0.7324579188080532
aF0.734339195624499
aF0.7362204724409449
aF0.7381017492573907
aF0.7399830260738366
aF0.7418643028902824
aF0.7485359988684049
aF0.7504172756848508
aF0.7522985525012966
aF0.7541798293177424
aF0.7560611061341883
aF0.7579423829506341
aF0.75982365976708
aF0.7617049365835259
aF0.7635862133999718
aF0.7690603045876749
aF0.7709415814041208
aF0.7728228582205667
aF0.7747041350370126
aF0.7765854118534584
aF0.7796642934603235
aF0.7815455702767692
aF0.7834268470932151
aF0.785308123909661
aF0.7919798198877834
aF0.7938610967042293
aF0.7957423735206752
aF0.7976236503371211
aF0.7995049271535668
aF0.8013862039700127
aF0.8032674807864586
aF0.8051487576029044
aF0.8082276392097695
aF0.8101089160262154
aF0.811990192842661
aF0.813871469659107
aF0.8157527464755528
aF0.8176340232919986
aF0.8195153001084445
aF0.8225941817153096
aF0.8244754585317553
aF0.8263567353482012
aF0.8282380121646471
aF0.8313168937715121
aF0.833198170587958
aF0.8350794474044039
aF0.8369607242208496
aF0.8400396058277146
aF0.8419208826441604
aF0.8438021594606063
aF0.8456834362770522
aF0.8475647130934981
aF0.850643594700363
aF0.8525248715168089
aF0.8544061483332547
aa(lp5
F0.0001358695652173913
aF0.00022644927536231887
aF0.0002717391304347826
aF0.00036231884057971015
aF0.00045289855072463774
aF0.0004981884057971014
aF0.0008152173913043479
aF0.0008605072463768117
aF0.0009057971014492755
aF0.0009510869565217393
aF0.0009963768115942029
aF0.0010416666666666667
aF0.0010869565217391304
aF0.0011322463768115942
aF0.001358695652173913
aF0.0014039855072463768
aF0.0014492753623188406
aF0.0014945652173913044
aF0.001585144927536232
aF0.0016304347826086958
aF0.0016757246376811596
aF0.0017210144927536234
aF0.001766304347826087
aF0.001811594202898551
aF0.0018568840579710145
aF0.0020833333333333333
aF0.002173913043478261
aF0.0022192028985507247
aF0.0022644927536231885
aF0.0023097826086956523
aF0.002355072463768116
aF0.00240036231884058
aF0.0024456521739130437
aF0.0026268115942028984
aF0.0027626811594202902
aF0.0028532608695652174
aF0.002898550724637681
aF0.002943840579710145
aF0.002989130434782609
aF0.0030344202898550726
aF0.0030797101449275364
aF0.003125
aF0.003170289855072464
aF0.0032155797101449273
aF0.0034873188405797105
aF0.003532608695652174
aF0.0035778985507246377
aF0.003623188405797102
aF0.0036684782608695657
aF0.003713768115942029
aF0.003759057971014493
aF0.003804347826086957
aF0.00384963768115942
aF0.0038949275362318843
aF0.004257246376811594
aF0.004302536231884058
aF0.004347826086956522
aF0.004393115942028986
aF0.004483695652173913
aF0.004528985507246377
aF0.004574275362318841
aF0.004619565217391305
aF0.004664855072463768
aF0.004710144927536232
aF0.0050724637681159425
aF0.005117753623188406
aF0.00516304347826087
aF0.005208333333333334
aF0.0052989130434782615
aF0.005344202898550725
aF0.005389492753623189
aF0.005434782608695652
aF0.0055253623188405805
aF0.005570652173913043
aF0.005615942028985507
aF0.005661231884057972
aF0.006114130434782609
aF0.006159420289855073
aF0.0062047101449275366
aF0.00625
aF0.006295289855072464
aF0.006340579710144928
aF0.006385869565217393
aF0.006431159420289855
aF0.0064764492753623185
aF0.006521739130434783
aF0.006567028985507247
aF0.006612318840579711
aF0.0066576086956521745
aF0.006748188405797101
aF0.006793478260869565
aF0.007382246376811594
aF0.007472826086956522
aF0.0075634057971014496
aF0.007608695652173914
aF0.00769927536231884
aF0.0077898550724637685
aF0.007835144927536232
aF0.007880434782608697
aF0.00792572463768116
aF0.007971014492753623
aF0.008016304347826088
aF0.00806159420289855
aF0.008106884057971015
aF0.008288043478260869
aF0.008378623188405798
aF0.00842391304347826
aF0.008876811594202899
aF0.008967391304347826
aF0.009057971014492754
aF0.009103260869565219
aF0.009284420289855072
aF0.009329710144927537
aF0.009375000000000001
aF0.009420289855072464
aF0.009465579710144929
aF0.009510869565217392
aF0.009556159420289855
aF0.00960144927536232
aF0.009782608695652175
aF0.009873188405797102
aF0.009918478260869565
aF0.010009057971014493
aF0.010461956521739132
aF0.010507246376811594
aF0.01068840579710145
aF0.010869565217391304
aF0.010914855072463769
aF0.010960144927536233
aF0.011005434782608696
aF0.011050724637681161
aF0.011231884057971014
aF0.011277173913043479
aF0.011458333333333334
aF0.011503623188405797
aF0.011548913043478262
aF0.012092391304347826
aF0.01213768115942029
aF0.012182971014492755
aF0.012228260869565218
aF0.012409420289855073
aF0.012454710144927536
aF0.0125
aF0.012545289855072465
aF0.012590579710144928
aF0.012635869565217393
aF0.012681159420289856
aF0.012817028985507246
aF0.01286231884057971
aF0.012907608695652174
aF0.01308876811594203
aF0.013134057971014494
aF0.01381340579710145
aF0.013903985507246377
aF0.013949275362318842
aF0.01403985507246377
aF0.014221014492753623
aF0.014266304347826088
aF0.01431159420289855
aF0.014492753623188408
aF0.014673913043478263
aF0.014719202898550724
aF0.014764492753623189
aF0.01539855072463768
aF0.015443840579710145
aF0.01548913043478261
aF0.015534420289855072
aF0.015579710144927537
aF0.01571557971014493
aF0.015760869565217394
aF0.015806159420289855
aF0.01598731884057971
aF0.016032608695652175
aF0.016077898550724636
aF0.0161231884057971
aF0.016168478260869566
aF0.01634963768115942
aF0.01693840579710145
aF0.017119565217391306
aF0.01716485507246377
aF0.017346014492753623
aF0.017391304347826087
aF0.017572463768115942
aF0.017617753623188407
aF0.017798913043478262
aF0.017844202898550723
aF0.01852355072463768
aF0.018568840579710144
aF0.01861413043478261
aF0.018659420289855073
aF0.018704710144927538
aF0.01884057971014493
aF0.018885869565217393
aF0.019067028985507245
aF0.01911231884057971
aF0.019157608695652174
aF0.01933876811594203
aF0.01965579710144928
aF0.01970108695652174
aF0.020244565217391305
aF0.02028985507246377
aF0.02033514492753623
aF0.020380434782608696
aF0.02042572463768116
aF0.020833333333333336
aF0.021014492753623187
aF0.021059782608695652
aF0.021105072463768117
aF0.021286231884057972
aF0.021875000000000002
aF0.021920289855072467
aF0.02232789855072464
aF0.022871376811594204
aF0.02291666666666667
aF0.02346014492753623
aF0.023505434782608695
aF0.02377717391304348
aF0.023822463768115944
aF0.02386775362318841
aF0.02436594202898551
aF0.02441123188405797
aF0.025362318840579712
aF0.025407608695652173
aF0.02545289855072464
aF0.026721014492753627
aF0.02676630434782609
aF0.028306159420289856
aF0.028351449275362317
aF0.029936594202898556
aF0.029981884057971017
aF0.030932971014492758
aF0.03097826086956522
aF0.03152173913043479
aF0.03156702898550725
aF0.03242753623188406
aF0.03247282608695653
aF0.033152173913043474
aF0.03319746376811594
aF0.03346920289855073
aF0.03351449275362319
aF0.03392210144927536
aF0.03396739130434783
aF0.03473731884057971
aF0.034782608695652174
aF0.03491847826086957
aF0.03496376811594203
aF0.035009057971014494
aF0.03541666666666667
aF0.035461956521739134
aF0.035507246376811595
aF0.036367753623188406
aF0.036413043478260874
aF0.036458333333333336
aF0.0365036231884058
aF0.03654891304347826
aF0.03704710144927536
aF0.03709239130434783
aF0.037998188405797106
aF0.03849637681159421
aF0.03854166666666667
aF0.03858695652173913
aF0.03958333333333333
aF0.04048913043478261
aF0.04053442028985507
aF0.041530797101449274
aF0.04157608695652174
aF0.04605978260869566
aa(lp6
F0.0
aF0.0018614187247932013
aF0.007324278025816977
aF0.015188097710994497
aF0.019450476819941415
aF0.022512375736811585
aF0.04358147753483407
aF0.045442896259627386
aF0.05090575556065116
aF0.052767174285444474
aF0.054628593010237786
aF0.06249241269541517
aF0.06435383142020848
aF0.06981669072123228
aF0.0848833915588707
aF0.08674481028366401
aF0.08860622900845733
aF0.0940690883094811
aF0.0995319476105049
aF0.10139336633529808
aF0.10325478506009139
aF0.10871764436111517
aF0.11057906308590851
aF0.11244048181070182
aF0.1203043014958792
aF0.13537100233351762
aF0.14203434182661825
aF0.14389576055141157
aF0.1457571792762048
aF0.1536209989613823
aF0.1554824176861756
aF0.16334623737135298
aF0.1652076560961463
aF0.1802743569337847
aF0.18693769642688535
aF0.18879911515167866
aF0.19426197445270244
aF0.19612339317749566
aF0.19798481190228898
aF0.2022471910112359
aF0.2041086097360292
aF0.20957146903705298
aF0.21143288776184632
aF0.21809622725494693
aF0.23316292809258535
aF0.23502434681737855
aF0.2416876863104792
aF0.24354910503527252
aF0.24661100395214258
aF0.24967290286901275
aF0.25153432159380607
aF0.2569971808948298
aF0.2588585996196231
aF0.26432145892064685
aF0.2829896003345158
aF0.284851019059309
aF0.29031387836033284
aF0.29217529708512613
aF0.2976381563861499
aF0.2994995751109432
aF0.30136099383573656
aF0.3068238531367603
aF0.30868527186155353
aF0.31414813116257745
aF0.3328162725764463
aF0.3346776913012396
aF0.3401405506022634
aF0.3420019693270566
aF0.34746482862808037
aF0.34932624735287365
aF0.35478910665389746
aF0.3566505253786908
aF0.36211338467971455
aF0.3639748034045079
aF0.3658362221293011
aF0.3676976408540944
aF0.3863657822679633
aF0.38822720099275665
aF0.39008861971754993
aF0.3919500384423432
aF0.39381145716713656
aF0.3956728758919298
aF0.39753429461672307
aF0.4029971539177468
aF0.40485857264254016
aF0.4067199913673335
aF0.4085814100921267
aF0.41044282881692
aF0.4159056881179438
aF0.4177671068427371
aF0.4208290057596072
aF0.43709618678932244
aF0.44015808570619264
aF0.4420195044309859
aF0.445081403347856
aF0.44814330226472604
aF0.4500047209895194
aF0.45546758029054313
aF0.45732899901533647
aF0.4591904177401297
aF0.461051836464923
aF0.4629132551897163
aF0.46477467391450966
aF0.46663609263930295
aF0.469697991556173
aF0.47275989047304307
aF0.4746213091978364
aF0.4872870496513212
aF0.4903489485681914
aF0.49221036729298456
aF0.49527226620985465
aF0.49713368493464793
aF0.4989951036594413
aF0.5008565223842346
aF0.5027179411090279
aF0.5045793598338212
aF0.5064407785586145
aF0.5083021972834078
aF0.5101636160082009
aF0.5132255149250711
aF0.5150869336498645
aF0.5181488325667346
aF0.5212107314836046
aF0.530275031360859
aF0.5321364500856522
aF0.5351983490025223
aF0.5370597677273157
aF0.538921186452109
aF0.5407826051769022
aF0.5426440239016955
aF0.5445054426264888
aF0.5463668613512821
aF0.5494287602681521
aF0.5512901789929454
aF0.5531515977177388
aF0.5550130164425321
aF0.5640773163197863
aF0.5659387350445797
aF0.567800153769373
aF0.5696615724941662
aF0.5715229912189594
aF0.5733844099437527
aF0.575245828668546
aF0.5771072473933393
aF0.5789686661181326
aF0.580830084842926
aF0.5826915035677193
aF0.5845529222925124
aF0.5864143410173058
aF0.588275759742099
aF0.5901371784668923
aF0.5919985971916856
aF0.6022633772610168
aF0.6053252761778869
aF0.6071866949026802
aF0.6102485938195503
aF0.6121100125443436
aF0.6139714312691368
aF0.6158328499939301
aF0.6188947489108003
aF0.6207561676355936
aF0.6226175863603869
aF0.6244790050851801
aF0.6323428247703576
aF0.6342042434951509
aF0.6360656622199441
aF0.6379270809447375
aF0.6397884996695307
aF0.641649918394324
aF0.6435113371191172
aF0.6453727558439106
aF0.6472341745687039
aF0.6490955932934972
aF0.6509570120182905
aF0.6528184307430838
aF0.6546798494678769
aF0.6577417483847471
aF0.6680065284540783
aF0.6698679471788715
aF0.6717293659036648
aF0.6735907846284582
aF0.6766526835453283
aF0.6785141022701214
aF0.6803755209949147
aF0.6822369397197081
aF0.6852988386365783
aF0.6907616979376019
aF0.6926231166623953
aF0.6944845353871886
aF0.6963459541119819
aF0.6982073728367751
aF0.7000687915615685
aF0.7019302102863617
aF0.703791629011155
aF0.7056530477359484
aF0.7075144664607416
aF0.7105763653776117
aF0.7136382642944818
aF0.7154996830192751
aF0.7209625423202989
aF0.7228239610450922
aF0.7246853797698856
aF0.7265467984946788
aF0.728408217219472
aF0.7314701161363422
aF0.7333315348611354
aF0.7351929535859287
aF0.737054372310722
aF0.7401162712275922
aF0.7431781701444623
aF0.7450395888692556
aF0.7481014877861256
aF0.749962906510919
aF0.7530248054277892
aF0.7548862241525823
aF0.7567476428773756
aF0.758609061602169
aF0.7604704803269622
aF0.7623318990517555
aF0.7641933177765488
aF0.7660547365013421
aF0.7679161552261354
aF0.7697775739509286
aF0.771638992675722
aF0.774700891592592
aF0.7765623103173853
aF0.7784237290421787
aF0.780285147766972
aF0.783347046683842
aF0.7852084654086353
aF0.7870698841334287
aF0.7889313028582219
aF0.791993201775092
aF0.7938546204998853
aF0.7957160392246787
aF0.7975774579494719
aF0.800639356866342
aF0.8025007755911353
aF0.8043621943159286
aF0.8062236130407219
aF0.8080850317655152
aF0.8111469306823853
aF0.8130083494071786
aF0.8148697681319719
aF0.8167311868567652
aF0.8185926055815584
aF0.8204540243063517
aF0.822315443031145
aF0.8241768617559384
aF0.8260382804807317
aF0.8278996992055249
aF0.8297611179303181
aF0.8316225366551115
aF0.8334839553799047
aF0.835345374104698
aF0.8372067928294914
aF0.8390682115542847
aF0.8457315510473852
aF0.8475929697721785
aF0.8494543884969719
aF0.8513158072217651
aF0.8543777061386352
aF0.8574396050555054
aF0.8593010237802986
aF0.8611624425050919
aF0.8630238612298852
aF0.8672862403388322
aa(lp7
F0.0001358695652173913
aF0.00022644927536231887
aF0.0002717391304347826
aF0.00036231884057971015
aF0.0006793478260869565
aF0.0007246376811594203
aF0.0007699275362318841
aF0.0008152173913043479
aF0.0008605072463768117
aF0.0009057971014492755
aF0.0009510869565217393
aF0.0010416666666666667
aF0.0011322463768115942
aF0.001177536231884058
aF0.0012681159420289856
aF0.001358695652173913
aF0.0014039855072463768
aF0.0014492753623188406
aF0.0014945652173913044
aF0.001585144927536232
aF0.0016304347826086958
aF0.0016757246376811596
aF0.0017210144927536234
aF0.001811594202898551
aF0.0018568840579710145
aF0.0019474637681159421
aF0.0019927536231884057
aF0.0020380434782608695
aF0.0020833333333333333
aF0.002128623188405797
aF0.002173913043478261
aF0.0023097826086956523
aF0.002355072463768116
aF0.00240036231884058
aF0.0026268115942028984
aF0.0026721014492753626
aF0.0027626811594202902
aF0.0028079710144927536
aF0.0028532608695652174
aF0.002898550724637681
aF0.002943840579710145
aF0.002989130434782609
aF0.0030344202898550726
aF0.0030797101449275364
aF0.003351449275362319
aF0.0034420289855072467
aF0.0034873188405797105
aF0.003532608695652174
aF0.0035778985507246377
aF0.003623188405797102
aF0.0036684782608695657
aF0.003713768115942029
aF0.004030797101449275
aF0.004121376811594204
aF0.004166666666666667
aF0.00421195652173913
aF0.004257246376811594
aF0.004347826086956522
aF0.004393115942028986
aF0.004438405797101449
aF0.004483695652173913
aF0.004528985507246377
aF0.004574275362318841
aF0.004619565217391305
aF0.0048460144927536235
aF0.004936594202898551
aF0.004981884057971015
aF0.005027173913043479
aF0.0050724637681159425
aF0.00516304347826087
aF0.005208333333333334
aF0.005253623188405797
aF0.0052989130434782615
aF0.005615942028985507
aF0.005661231884057972
aF0.005706521739130435
aF0.005751811594202899
aF0.005797101449275362
aF0.005842391304347827
aF0.00588768115942029
aF0.005932971014492754
aF0.005978260869565218
aF0.006023550724637681
aF0.006068840579710145
aF0.006114130434782609
aF0.0062047101449275366
aF0.006295289855072464
aF0.006340579710144928
aF0.0066576086956521745
aF0.006702898550724638
aF0.006793478260869565
aF0.0068840579710144935
aF0.006929347826086957
aF0.007019927536231885
aF0.007110507246376812
aF0.007155797101449275
aF0.007246376811594204
aF0.0073369565217391314
aF0.007382246376811594
aF0.007472826086956522
aF0.0075634057971014496
aF0.007608695652173914
aF0.008288043478260869
aF0.008378623188405798
aF0.00842391304347826
aF0.008514492753623188
aF0.008605072463768116
aF0.008650362318840579
aF0.008831521739130436
aF0.008876811594202899
aF0.008922101449275362
aF0.008967391304347826
aF0.00901268115942029
aF0.009057971014492754
aF0.009103260869565219
aF0.009148550724637682
aF0.009193840579710146
aF0.00923913043478261
aF0.009284420289855072
aF0.009329710144927537
aF0.009873188405797102
aF0.009918478260869565
aF0.010009057971014493
aF0.010099637681159422
aF0.010144927536231885
aF0.01032608695652174
aF0.010371376811594203
aF0.010552536231884058
aF0.010597826086956523
aF0.010778985507246378
aF0.010824275362318841
aF0.011005434782608696
aF0.011050724637681161
aF0.011503623188405797
aF0.011548913043478262
aF0.011594202898550725
aF0.01163949275362319
aF0.011820652173913045
aF0.011865942028985508
aF0.011911231884057972
aF0.012092391304347826
aF0.012273550724637683
aF0.012318840579710146
aF0.012364130434782608
aF0.012545289855072465
aF0.012635869565217393
aF0.012681159420289856
aF0.013134057971014494
aF0.013315217391304349
aF0.013360507246376814
aF0.013541666666666667
aF0.01358695652173913
aF0.013768115942028987
aF0.01381340579710145
aF0.013858695652173915
aF0.01403985507246377
aF0.014719202898550724
aF0.014764492753623189
aF0.014809782608695652
aF0.014855072463768116
aF0.015036231884057972
aF0.015081521739130436
aF0.015126811594202899
aF0.015172101449275364
aF0.015217391304347828
aF0.015353260869565217
aF0.01539855072463768
aF0.015443840579710145
aF0.015534420289855072
aF0.01571557971014493
aF0.015760869565217394
aF0.015806159420289855
aF0.01644021739130435
aF0.016485507246376815
aF0.016530797101449276
aF0.016576086956521737
aF0.016621376811594202
aF0.016666666666666666
aF0.01671195652173913
aF0.016893115942028986
aF0.01693840579710145
aF0.017028985507246377
aF0.017210144927536232
aF0.017255434782608697
aF0.017300724637681158
aF0.017481884057971016
aF0.017934782608695653
aF0.017980072463768117
aF0.018161231884057973
aF0.018206521739130437
aF0.018387681159420292
aF0.018432971014492757
aF0.01861413043478261
aF0.018659420289855073
aF0.018750000000000003
aF0.018931159420289858
aF0.018976449275362323
aF0.019021739130434784
aF0.019067028985507245
aF0.01911231884057971
aF0.01956521739130435
aF0.019610507246376814
aF0.01965579710144928
aF0.01970108695652174
aF0.01983695652173913
aF0.019882246376811595
aF0.01992753623188406
aF0.020108695652173915
aF0.02015398550724638
aF0.020199275362318844
aF0.020380434782608696
aF0.020697463768115945
aF0.020742753623188406
aF0.021286231884057972
aF0.021331521739130437
aF0.0213768115942029
aF0.021422101449275366
aF0.021693840579710147
aF0.021739130434782608
aF0.021784420289855073
aF0.021965579710144928
aF0.022010869565217393
aF0.022282608695652174
aF0.02232789855072464
aF0.022373188405797103
aF0.02291666666666667
aF0.02296195652173913
aF0.023369565217391308
aF0.02377717391304348
aF0.023822463768115944
aF0.02386775362318841
aF0.0245018115942029
aF0.024547101449275365
aF0.025407608695652173
aF0.02545289855072464
aF0.025498188405797102
aF0.026358695652173914
aF0.036458333333333336
aF0.0365036231884058
aF0.040625
aF0.042527173913043476
aF0.042572463768115944
aF0.042617753623188405
aF0.043840579710144933
aF0.044610507246376815
aF0.04465579710144928
aF0.044701086956521745
aF0.046150362318840586
aF0.04619565217391305
aF0.04809782608695653
aF0.04814311594202899
aa(lp8
F0.0
aF0.0019180761982012517
aF0.011021781138917414
aF0.01892788128921441
aF0.0364148197628647
aF0.038332895961065955
aF0.04025097215926707
aF0.048157072309564175
aF0.05007514850776529
aF0.05558603907722401
aF0.05750411527542523
aF0.06660782021614142
aF0.06972350120476173
aF0.07164157740296298
aF0.08433809671493661
aF0.08984898728439533
aF0.09176706348259658
aF0.09368513968079781
aF0.09919603025025642
aF0.10470692081971511
aF0.10662499701791636
aF0.10854307321611759
aF0.1140539637855763
aF0.11716964477419661
aF0.11908772097239786
aF0.13417944986520977
aF0.13609752606341102
aF0.13801560226161227
aF0.14592170241190924
aF0.1478397786101105
aF0.15574587876040746
aF0.16604718849154285
aF0.16796526468974396
aF0.1698833408879452
aF0.1885678841520147
aF0.19048596035021595
aF0.19240403654841706
aF0.20031013669871417
aF0.20222821289691528
aF0.207739103466374
aF0.20965717966457523
aF0.21157525586277648
aF0.21588854164181598
aF0.21780661784001712
aF0.24008397547534407
aF0.2455948660448028
aF0.24751294224300402
aF0.24943101844120527
aF0.25733711859150227
aF0.2592551947897035
aF0.26237087577832385
aF0.2666841615573633
aF0.28536870482143284
aF0.2908795953908916
aF0.29279767158909276
aF0.2947157477872939
aF0.3002266383567526
aF0.3057375289262113
aF0.3076556051244126
aF0.3095736813226137
aF0.3150845718920724
aF0.3170026480902737
aF0.31892072428847484
aF0.320838800486676
aF0.3371281341699072
aF0.3426390247393659
aF0.3445571009375671
aF0.3464751771357683
aF0.351986067705227
aF0.35749695827468575
aF0.3594150344728868
aF0.3613331106710881
aF0.3668440012405468
aF0.3843309397141971
aF0.38624901591239835
aF0.3881670921105996
aF0.39367798268005816
aF0.39559605887825944
aF0.39751413507646066
aF0.3994322112746619
aF0.40135028747286305
aF0.4032683636710643
aF0.4051864398692654
aF0.4071045160674666
aF0.4126154066369253
aF0.41573108762554567
aF0.4176491638237469
aF0.4207648448123673
aF0.4358565737051793
aF0.4377746499033805
aF0.4408903308920009
aF0.4440060118806212
aF0.44592408807882233
aF0.4490397690674428
aF0.4521554500560632
aF0.45407352625426434
aF0.4571892072428847
aF0.4591072834410859
aF0.46222296442970634
aF0.46533864541832665
aF0.4672567216165279
aF0.4727676121859866
aF0.4890569458692177
aF0.49217262685783814
aF0.4940907030560393
aF0.4972063840446596
aF0.50032206503328
aF0.5022401412314813
aF0.5041582174296825
aF0.5060762936278836
aF0.5079943698260849
aF0.509912446024286
aF0.5118305222224873
aF0.5137485984206885
aF0.5156666746188897
aF0.517584750817091
aF0.5195028270152922
aF0.5214209032134933
aF0.5233389794116945
aF0.5252570556098957
aF0.5319655509697736
aF0.5338836271679748
aF0.5369993081565951
aF0.5389173843547964
aF0.5420330653434167
aF0.5439511415416179
aF0.5458692177398191
aF0.5477872939380204
aF0.5509029749266408
aF0.552821051124842
aF0.5547391273230431
aF0.5566572035212444
aF0.5597728845098647
aF0.5628885654984851
aF0.5648066416966864
aF0.5667247178948875
aF0.5686427940930887
aF0.5705608702912899
aF0.572478946489491
aF0.5743970226876923
aF0.5775127036763128
aF0.5794307798745139
aF0.5813488560727151
aF0.5832669322709163
aF0.5863826132595367
aF0.5894982942481571
aF0.5914163704463582
aF0.5981248658062361
aF0.6000429420044374
aF0.6019610182026385
aF0.6038790944008398
aF0.6069947753894601
aF0.6089128515876613
aF0.6108309277858626
aF0.6127490039840638
aF0.6158646849726841
aF0.6249683899134003
aF0.6268864661116014
aF0.6288045423098026
aF0.6307226185080039
aF0.6326406947062051
aF0.6345587709044064
aF0.6364768471026077
aF0.6383949233008087
aF0.6403129994990099
aF0.6422310756972112
aF0.6441491518954123
aF0.6460672280936136
aF0.649182909082234
aF0.6511009852804351
aF0.6530190614786363
aF0.6549371376768375
aF0.6664360521983921
aF0.6683541283965934
aF0.6702722045947945
aF0.6721902807929957
aF0.6741083569911968
aF0.676026433189398
aF0.6779445093875993
aF0.6810601903762197
aF0.682978266574421
aF0.6860939475630412
aF0.6880120237612424
aF0.6899300999594437
aF0.6918481761576449
aF0.6949638571462653
aF0.7040675620869814
aF0.7059856382851826
aF0.7079037144833839
aF0.7110193954720042
aF0.7129374716702054
aF0.7148555478684067
aF0.7167736240666078
aF0.7198893050552282
aF0.7230049860438486
aF0.7249230622420498
aF0.726841138440251
aF0.7287592146384522
aF0.7306772908366533
aF0.7325953670348546
aF0.735711048023475
aF0.7376291242216761
aF0.7395472004198774
aF0.7414652766180786
aF0.7433833528162798
aF0.745301429014481
aF0.7472195052126822
aF0.7491375814108834
aF0.7510556576090847
aF0.7529737338072858
aF0.7560894147959062
aF0.7592050957845266
aF0.7611231719827277
aF0.7666340625521865
aF0.7685521387503877
aF0.7704702149485888
aF0.7723882911467901
aF0.7743063673449913
aF0.7762244435431925
aF0.7781425197413937
aF0.7800605959395949
aF0.7819786721377961
aF0.7838967483359973
aF0.7858148245341985
aF0.7877329007323998
aF0.7908485817210201
aF0.7927666579192213
aF0.7958823389078417
aF0.7978004151060428
aF0.7997184913042441
aF0.8016365675024454
aF0.8035546437006464
aF0.8054727198988477
aF0.807390796097049
aF0.8093088722952501
aF0.8112269484934513
aF0.8143426294820717
aF0.8162607056802729
aF0.8193763866688933
aF0.8224920676575136
aF0.8244101438557149
aF0.8263282200539162
aF0.8282462962521172
aF0.8313619772407377
aF0.8332800534389389
aF0.83519812963714
aF0.8371162058353413
aF0.8402318868239615
aF0.8421499630221628
aF0.8440680392203641
aF0.8459861154185652
aa.