(lp0
(lp1
cnumpy.core.multiarray
scalar
p2
(cnumpy
dtype
p3
(S'f4'
p4
I0
I1
tp5
Rp6
(I3
S'<'
p7
NNNI-1
I-1
I0
tp8
bS'\xa0w\xb4;'
p9
tp10
Rp11
ag2
(g6
S'M\xe1\xbf;'
p12
tp13
Rp14
ag2
(g6
S'Ut9<'
p15
tp16
Rp17
ag2
(g6
S'\x8e|3;'
p18
tp19
Rp20
ag2
(g6
S'\xe0\x82\xa4;'
p21
tp22
Rp23
ag2
(g6
S'e\xd8\x83:'
p24
tp25
Rp26
ag2
(g6
S'\xa4/\x109'
p27
tp28
Rp29
ag2
(g6
S'3\x98\xd1;'
p30
tp31
Rp32
ag2
(g6
S'\xda\xe6\x81:'
p33
tp34
Rp35
ag2
(g6
S'\xcc\xb0\xcb;'
p36
tp37
Rp38
ag2
(g6
S'\xbd\xea.;'
p39
tp40
Rp41
ag2
(g6
S'\x1a\xe6\xd5;'
p42
tp43
Rp44
ag2
(g6
S'\xf7\xc7::'
p45
tp46
Rp47
ag2
(g6
S'\x00\x1b\x97;'
p48
tp49
Rp50
ag2
(g6
S'\xa5,";'
p51
tp52
Rp53
ag2
(g6
S'r\xa6M;'
p54
tp55
Rp56
ag2
(g6
S'\xc3\x95z;'
p57
tp58
Rp59
ag2
(g6
S'\\\xd5U:'
p60
tp61
Rp62
ag2
(g6
S'\xd5\xe8\x9d;'
p63
tp64
Rp65
ag2
(g6
S'\xfcq\x1f;'
p66
tp67
Rp68
ag2
(g6
S'e4\xbc;'
p69
tp70
Rp71
ag2
(g6
S'\xb4P\xa5;'
p72
tp73
Rp74
ag2
(g6
S'\xf0\xe5\xa1:'
p75
tp76
Rp77
ag2
(g6
S'i\x84\n;'
p78
tp79
Rp80
ag2
(g6
S'}x\xa7;'
p81
tp82
Rp83
ag2
(g6
S'y\x83\x14<'
p84
tp85
Rp86
ag2
(g6
S"\xf1\x81';"
p87
tp88
Rp89
ag2
(g6
S'\x02\xc1*<'
p90
tp91
Rp92
ag2
(g6
S'\x8f@\x06;'
p93
tp94
Rp95
ag2
(g6
S'\xe8@\x83:'
p96
tp97
Rp98
ag2
(g6
S'D\x9d\x8d;'
p99
tp100
Rp101
ag2
(g6
S'\x05\xf3\xe2:'
p102
tp103
Rp104
ag2
(g6
S'\x01/\x01<'
p105
tp106
Rp107
ag2
(g6
S'\xcf)\x01;'
p108
tp109
Rp110
ag2
(g6
S'\xf99V;'
p111
tp112
Rp113
ag2
(g6
S'1\xce5<'
p114
tp115
Rp116
ag2
(g6
S'D\x9cY:'
p117
tp118
Rp119
ag2
(g6
S'e\n\xa2<'
p120
tp121
Rp122
ag2
(g6
S'\xe0E\x849'
p123
tp124
Rp125
ag2
(g6
S'{\x02\x04:'
p126
tp127
Rp128
ag2
(g6
S'<\xa2C;'
p129
tp130
Rp131
ag2
(g6
S'\xbb3/;'
p132
tp133
Rp134
ag2
(g6
S'\xdf^8;'
p135
tp136
Rp137
ag2
(g6
S'\xcf\xac\x8c;'
p138
tp139
Rp140
ag2
(g6
S'\xb1zS;'
p141
tp142
Rp143
ag2
(g6
S'37\x80<'
p144
tp145
Rp146
ag2
(g6
S'\xe6\xef\xbd;'
p147
tp148
Rp149
ag2
(g6
S'}\xecG;'
p150
tp151
Rp152
ag2
(g6
S'\xbd_\x05;'
p153
tp154
Rp155
ag2
(g6
S'\xc8f\xa5;'
p156
tp157
Rp158
ag2
(g6
S'y\xc3\x07;'
p159
tp160
Rp161
ag2
(g6
S'i=%:'
p162
tp163
Rp164
ag2
(g6
S'\x1d\xb8X;'
p165
tp166
Rp167
ag2
(g6
S'\xd0>\x7f<'
p168
tp169
Rp170
ag2
(g6
S'\xa7\xcf\xda;'
p171
tp172
Rp173
ag2
(g6
S'\xcd\x92g;'
p174
tp175
Rp176
ag2
(g6
S'CtI<'
p177
tp178
Rp179
ag2
(g6
S's\xdc\x05<'
p180
tp181
Rp182
ag2
(g6
S'\x8a\tE;'
p183
tp184
Rp185
ag2
(g6
S'w\xdey;'
p186
tp187
Rp188
ag2
(g6
S'\xae\x1eL;'
p189
tp190
Rp191
ag2
(g6
S'\xe5\x83\xdd;'
p192
tp193
Rp194
ag2
(g6
S'\xd71\x11;'
p195
tp196
Rp197
ag2
(g6
S'*d\xbb:'
p198
tp199
Rp200
ag2
(g6
S'\x1a\x89\xa0;'
p201
tp202
Rp203
ag2
(g6
S')Cg;'
p204
tp205
Rp206
ag2
(g6
S' \xad\xbb;'
p207
tp208
Rp209
ag2
(g6
S'\xe1th;'
p210
tp211
Rp212
ag2
(g6
S'ob\x8d;'
p213
tp214
Rp215
ag2
(g6
S'm\xe4\xa6;'
p216
tp217
Rp218
ag2
(g6
S'\xd0\xd6\xe6;'
p219
tp220
Rp221
ag2
(g6
S'\x00\x8b\x8e;'
p222
tp223
Rp224
ag2
(g6
S')\xb64;'
p225
tp226
Rp227
ag2
(g6
S'$\xe0\xf8;'
p228
tp229
Rp230
ag2
(g6
S'H\xc6];'
p231
tp232
Rp233
ag2
(g6
S'\x0e{\xbc:'
p234
tp235
Rp236
ag2
(g6
S'l\xd4$;'
p237
tp238
Rp239
ag2
(g6
S'w\x91\x8a;'
p240
tp241
Rp242
ag2
(g6
S'\x1f\x03\xeb:'
p243
tp244
Rp245
ag2
(g6
S'Q|\xa19'
p246
tp247
Rp248
ag2
(g6
S'\x11\x04+;'
p249
tp250
Rp251
ag2
(g6
S'k{\xd5;'
p252
tp253
Rp254
ag2
(g6
S'\xa4\xd1/<'
p255
tp256
Rp257
ag2
(g6
S'l-\x1d;'
p258
tp259
Rp260
ag2
(g6
S'\xc3\x94\x08;'
p261
tp262
Rp263
ag2
(g6
S'\x14y\xb7;'
p264
tp265
Rp266
ag2
(g6
S'\x81\xcd\x0f;'
p267
tp268
Rp269
ag2
(g6
S'\xf2\x99|<'
p270
tp271
Rp272
ag2
(g6
S'Yg\x0c<'
p273
tp274
Rp275
ag2
(g6
S'\xd2\x16q;'
p276
tp277
Rp278
ag2
(g6
S'\xaf\xef\xc1;'
p279
tp280
Rp281
ag2
(g6
S'\xa0\x0e\xcd:'
p282
tp283
Rp284
ag2
(g6
S'R\xcb{;'
p285
tp286
Rp287
ag2
(g6
S'v<\x10:'
p288
tp289
Rp290
ag2
(g6
S'c\xdaB:'
p291
tp292
Rp293
ag2
(g6
S'kU79'
p294
tp295
Rp296
ag2
(g6
S'\x12)\x85;'
p297
tp298
Rp299
ag2
(g6
S'a/S:'
p300
tp301
Rp302
ag2
(g6
S'\x9d\xa6\x1b;'
p303
tp304
Rp305
ag2
(g6
S'\x80\x08\x90;'
p306
tp307
Rp308
ag2
(g6
S'D\xd0\xb2;'
p309
tp310
Rp311
ag2
(g6
S'\xa3\x19\xa3;'
p312
tp313
Rp314
ag2
(g6
S'.S\xa38'
p315
tp316
Rp317
ag2
(g6
S'\x9a \x91<'
p318
tp319
Rp320
ag2
(g6
S'UG\xf3;'
p321
tp322
Rp323
ag2
(g6
S'h(P;'
p324
tp325
Rp326
ag2
(g6
S'z\xe6\x8f;'
p327
tp328
Rp329
ag2
(g6
S'>?\x1b<'
p330
tp331
Rp332
ag2
(g6
S'\xb3\t\x11;'
p333
tp334
Rp335
ag2
(g6
S'<8<;'
p336
tp337
Rp338
ag2
(g6
S'^\x99\x1c<'
p339
tp340
Rp341
ag2
(g6
S'\x00\xda\x988'
p342
tp343
Rp344
ag2
(g6
S'$\xa6_:'
p345
tp346
Rp347
ag2
(g6
S'\xa1\x9e\xa7;'
p348
tp349
Rp350
ag2
(g6
S'\xcc;\xb1:'
p351
tp352
Rp353
ag2
(g6
S'\x13\x9b\x9a;'
p354
tp355
Rp356
ag2
(g6
S'I5\xaf:'
p357
tp358
Rp359
ag2
(g6
S'\x83\xae,;'
p360
tp361
Rp362
ag2
(g6
S'\xc2\xae\xaa:'
p363
tp364
Rp365
ag2
(g6
S'\xd4\xfca;'
p366
tp367
Rp368
ag2
(g6
S'\xa0\xde0;'
p369
tp370
Rp371
ag2
(g6
S'\xf2I^<'
p372
tp373
Rp374
ag2
(g6
S'\x0f\xb7\xba:'
p375
tp376
Rp377
ag2
(g6
S'P\xd5\x99:'
p378
tp379
Rp380
ag2
(g6
S'\xcf%\xbc;'
p381
tp382
Rp383
ag2
(g6
S'\x8a\xeb3;'
p384
tp385
Rp386
ag2
(g6
S'\xa0\xff\x15;'
p387
tp388
Rp389
ag2
(g6
S'T\xbb\x96:'
p390
tp391
Rp392
ag2
(g6
S'}\xea\x9c8'
p393
tp394
Rp395
ag2
(g6
S"'\xf2\x18;"
p396
tp397
Rp398
ag2
(g6
S'\x1a,\x08:'
p399
tp400
Rp401
ag2
(g6
S'iC7;'
p402
tp403
Rp404
ag2
(g6
S'3\xac\xa4:'
p405
tp406
Rp407
ag2
(g6
S'\x14\xf7-;'
p408
tp409
Rp410
ag2
(g6
S'1^J;'
p411
tp412
Rp413
ag2
(g6
S'Y\x14\x16;'
p414
tp415
Rp416
ag2
(g6
S'\x8a\xf61;'
p417
tp418
Rp419
ag2
(g6
S'\xedl|;'
p420
tp421
Rp422
ag2
(g6
S'\xe0tF;'
p423
tp424
Rp425
ag2
(g6
S'}\xec\xcb;'
p426
tp427
Rp428
ag2
(g6
S'D\xc9\x1e;'
p429
tp430
Rp431
ag2
(g6
S'j\xae\xf7:'
p432
tp433
Rp434
ag2
(g6
S'\xfe[\xb3:'
p435
tp436
Rp437
ag2
(g6
S'\\\xc6e;'
p438
tp439
Rp440
ag2
(g6
S'I\x9c\x8f;'
p441
tp442
Rp443
ag2
(g6
S'Y\xf8\x13;'
p444
tp445
Rp446
ag2
(g6
S"'*\x15;"
p447
tp448
Rp449
ag2
(g6
S'[O\x13;'
p450
tp451
Rp452
ag2
(g6
S'\xec\xd51;'
p453
tp454
Rp455
ag2
(g6
S'm\xe5X;'
p456
tp457
Rp458
ag2
(g6
S'\x03\xe85<'
p459
tp460
Rp461
ag2
(g6
S'B\\\xab;'
p462
tp463
Rp464
ag2
(g6
S'\xdcF\xa6:'
p465
tp466
Rp467
ag2
(g6
S'L-\xc2:'
p468
tp469
Rp470
ag2
(g6
S'\x94\x01\xc6:'
p471
tp472
Rp473
ag2
(g6
S'\x0e\xbe\\;'
p474
tp475
Rp476
ag2
(g6
S'\xfer\xcf;'
p477
tp478
Rp479
ag2
(g6
S'\xfe!\xd4:'
p480
tp481
Rp482
ag2
(g6
S'\x8b\xa1\xce:'
p483
tp484
Rp485
ag2
(g6
S'\x16Z\xa0:'
p486
tp487
Rp488
ag2
(g6
S'\xd0\x94A;'
p489
tp490
Rp491
ag2
(g6
S'\t\x80;<'
p492
tp493
Rp494
ag2
(g6
S'\x80L\xd7:'
p495
tp496
Rp497
ag2
(g6
S'\x1dvy:'
p498
tp499
Rp500
ag2
(g6
S'c\xa1\xe6;'
p501
tp502
Rp503
ag2
(g6
S'\xf6\xd3\x07;'
p504
tp505
Rp506
ag2
(g6
S'\x98\xa8\x93;'
p507
tp508
Rp509
ag2
(g6
S'\xab\x91D;'
p510
tp511
Rp512
ag2
(g6
S'\x0f\xba\x86;'
p513
tp514
Rp515
ag2
(g6
S'x\xc79:'
p516
tp517
Rp518
ag2
(g6
S'\xbe\x92\x8e:'
p519
tp520
Rp521
ag2
(g6
S'\xd9\xdc\x9c;'
p522
tp523
Rp524
ag2
(g6
S'\xb7\xf2\x13;'
p525
tp526
Rp527
ag2
(g6
S'\xe0\xd6\xad;'
p528
tp529
Rp530
ag2
(g6
S'?\xc4\xb3;'
p531
tp532
Rp533
ag2
(g6
S'\x19c(<'
p534
tp535
Rp536
ag2
(g6
S'\xa6\xee\x14<'
p537
tp538
Rp539
ag2
(g6
S"\xa1K';"
p540
tp541
Rp542
ag2
(g6
S'5\xd6\x86:'
p543
tp544
Rp545
ag2
(g6
S'\xcfo\x0c;'
p546
tp547
Rp548
ag2
(g6
S'\x89F\x95:'
p549
tp550
Rp551
ag2
(g6
S'?&j:'
p552
tp553
Rp554
ag2
(g6
S'q\x99\xec:'
p555
tp556
Rp557
ag2
(g6
S'I\xbd\x93:'
p558
tp559
Rp560
ag2
(g6
S'\x87/h;'
p561
tp562
Rp563
ag2
(g6
S'\x0c\xa2\xb99'
p564
tp565
Rp566
ag2
(g6
S'\xc5\x96Y:'
p567
tp568
Rp569
ag2
(g6
S'\xc9\xef\x06:'
p570
tp571
Rp572
ag2
(g6
S'H{\x80;'
p573
tp574
Rp575
ag2
(g6
S'\xc3\x06\xe8:'
p576
tp577
Rp578
ag2
(g6
S'\xb5dl;'
p579
tp580
Rp581
ag2
(g6
S'\xc8\xdd\x11<'
p582
tp583
Rp584
ag2
(g6
S'\xa4\x99\x1a;'
p585
tp586
Rp587
ag2
(g6
S'\x19\x13\x8a:'
p588
tp589
Rp590
ag2
(g6
S'\xf9\xd6\xdd;'
p591
tp592
Rp593
ag2
(g6
S'\x82\xed\x93;'
p594
tp595
Rp596
ag2
(g6
S'\xc1[\xf4:'
p597
tp598
Rp599
ag2
(g6
S'\x83;\xc2:'
p600
tp601
Rp602
ag2
(g6
S'\x03\xf8\xc49'
p603
tp604
Rp605
ag2
(g6
S'TG\x83;'
p606
tp607
Rp608
ag2
(g6
S'^\xbb\xcb<'
p609
tp610
Rp611
ag2
(g6
S':YO;'
p612
tp613
Rp614
ag2
(g6
S'\x96d\xb5:'
p615
tp616
Rp617
ag2
(g6
S'\x96\x10\xad;'
p618
tp619
Rp620
ag2
(g6
S'\xd0n\t;'
p621
tp622
Rp623
ag2
(g6
S'3=l;'
p624
tp625
Rp626
ag2
(g6
S'\x8e\r\xac;'
p627
tp628
Rp629
ag2
(g6
S')B\x90;'
p630
tp631
Rp632
ag2
(g6
S'\xfb|\x04;'
p633
tp634
Rp635
ag2
(g6
S'\xa71U:'
p636
tp637
Rp638
ag2
(g6
S'\x96\xfbF;'
p639
tp640
Rp641
ag2
(g6
S'\x87\x9f!;'
p642
tp643
Rp644
ag2
(g6
S'\xfcVB;'
p645
tp646
Rp647
ag2
(g6
S'\xbc\x9a&;'
p648
tp649
Rp650
ag2
(g6
S'\x9f\x8ea:'
p651
tp652
Rp653
ag2
(g6
S'A\xbb\xfd:'
p654
tp655
Rp656
ag2
(g6
S'w\xe3\xc9;'
p657
tp658
Rp659
ag2
(g6
S'=\xd1\xec;'
p660
tp661
Rp662
ag2
(g6
S'\xbd\xc3\x07;'
p663
tp664
Rp665
ag2
(g6
S'\x98\x19\xf1:'
p666
tp667
Rp668
ag2
(g6
S'7+\xce:'
p669
tp670
Rp671
ag2
(g6
S'\xad[*<'
p672
tp673
Rp674
ag2
(g6
S'\xd5\x06\xe9;'
p675
tp676
Rp677
ag2
(g6
S'\x85Ka;'
p678
tp679
Rp680
ag2
(g6
S'\xb2P\xbf;'
p681
tp682
Rp683
ag2
(g6
S'W/\x88;'
p684
tp685
Rp686
ag2
(g6
S'\xb0\x8b0<'
p687
tp688
Rp689
ag2
(g6
S'SAY;'
p690
tp691
Rp692
ag2
(g6
S'\x90\xb9\xd9:'
p693
tp694
Rp695
ag2
(g6
S'\x02R\xf5;'
p696
tp697
Rp698
ag2
(g6
S'dJ7;'
p699
tp700
Rp701
ag2
(g6
S'It\x96<'
p702
tp703
Rp704
ag2
(g6
S'\xc4\x0e\t;'
p705
tp706
Rp707
ag2
(g6
S'\xee\xa8\x84;'
p708
tp709
Rp710
ag2
(g6
S'\xdf\xad9;'
p711
tp712
Rp713
ag2
(g6
S'\x18\xce\xa9:'
p714
tp715
Rp716
ag2
(g6
S'W_I;'
p717
tp718
Rp719
ag2
(g6
S'\xc4UV;'
p720
tp721
Rp722
ag2
(g6
S'\x1a:z;'
p723
tp724
Rp725
ag2
(g6
S'\x8a\xb4k;'
p726
tp727
Rp728
ag2
(g6
S'M\xae\xca;'
p729
tp730
Rp731
ag2
(g6
S'\x9f\xba\xbc;'
p732
tp733
Rp734
ag2
(g6
S't\x0b\xe3;'
p735
tp736
Rp737
ag2
(g6
S'\x89\xcc\x86;'
p738
tp739
Rp740
ag2
(g6
S'\xed\xbc\xa7;'
p741
tp742
Rp743
ag2
(g6
S'\xef\xea\x1d:'
p744
tp745
Rp746
ag2
(g6
S'#\xb0\xb4;'
p747
tp748
Rp749
ag2
(g6
S'\xcbW\x96;'
p750
tp751
Rp752
ag2
(g6
S'\x94\x128;'
p753
tp754
Rp755
ag2
(g6
S't\x04&<'
p756
tp757
Rp758
ag2
(g6
S' <\xbb;'
p759
tp760
Rp761
ag2
(g6
S'`Pu;'
p762
tp763
Rp764
ag2
(g6
S'\xb3\x1d\xc9:'
p765
tp766
Rp767
ag2
(g6
S'(}\xd0:'
p768
tp769
Rp770
ag2
(g6
S'\x0c\xce\r;'
p771
tp772
Rp773
ag2
(g6
S'boQ;'
p774
tp775
Rp776
ag2
(g6
S'\xd0\xb7\x07<'
p777
tp778
Rp779
ag2
(g6
S'E&A:'
p780
tp781
Rp782
ag2
(g6
S'\\\xdeO<'
p783
tp784
Rp785
ag2
(g6
S'\xc4I?;'
p786
tp787
Rp788
ag2
(g6
S'\xd4\xf9\xd4;'
p789
tp790
Rp791
ag2
(g6
S'\xff\x97\xb4;'
p792
tp793
Rp794
ag2
(g6
S'W^\x03<'
p795
tp796
Rp797
ag2
(g6
S'\xf4m0;'
p798
tp799
Rp800
ag2
(g6
S'\xab%";'
p801
tp802
Rp803
ag2
(g6
S'Y\xba\xc2:'
p804
tp805
Rp806
ag2
(g6
S'\x14(\xa9;'
p807
tp808
Rp809
ag2
(g6
S'3K+<'
p810
tp811
Rp812
ag2
(g6
S'\xd5-\x05;'
p813
tp814
Rp815
ag2
(g6
S'aI\xc5:'
p816
tp817
Rp818
ag2
(g6
S'\xbd5Z;'
p819
tp820
Rp821
ag2
(g6
S' R\xb3:'
p822
tp823
Rp824
ag2
(g6
S'\xe5\x05\xf8:'
p825
tp826
Rp827
ag2
(g6
S'?*\x83;'
p828
tp829
Rp830
ag2
(g6
S'\x94q\xdc;'
p831
tp832
Rp833
ag2
(g6
S'\xd9\xc4M;'
p834
tp835
Rp836
ag2
(g6
S'A\xb2\xb1;'
p837
tp838
Rp839
ag2
(g6
S'\xfa\x02\x869'
p840
tp841
Rp842
ag2
(g6
S'T\xba\xcc;'
p843
tp844
Rp845
ag2
(g6
S'\xb1\xad\xcd:'
p846
tp847
Rp848
ag2
(g6
S'<l\x13;'
p849
tp850
Rp851
ag2
(g6
S'\x18>\xf3;'
p852
tp853
Rp854
ag2
(g6
S'\xfd \x1c:'
p855
tp856
Rp857
ag2
(g6
S'\xae\xd8\x9d;'
p858
tp859
Rp860
ag2
(g6
S'o\x92\xa2:'
p861
tp862
Rp863
ag2
(g6
S'M\x97*;'
p864
tp865
Rp866
ag2
(g6
S'^\x17\x82;'
p867
tp868
Rp869
ag2
(g6
S'9\x94\x0f<'
p870
tp871
Rp872
ag2
(g6
S'D\x97`:'
p873
tp874
Rp875
ag2
(g6
S'\x18Q\xed:'
p876
tp877
Rp878
ag2
(g6
S'}0n;'
p879
tp880
Rp881
ag2
(g6
S'\x10\x1c\xc6:'
p882
tp883
Rp884
ag2
(g6
S'f|\xab:'
p885
tp886
Rp887
ag2
(g6
S'\xe1Tn;'
p888
tp889
Rp890
ag2
(g6
S'\x87\x02\xe4;'
p891
tp892
Rp893
ag2
(g6
S'\xa5A\xa8;'
p894
tp895
Rp896
ag2
(g6
S'\xdaPH;'
p897
tp898
Rp899
ag2
(g6
S'D\xa0\xec;'
p900
tp901
Rp902
ag2
(g6
S'\x1aVj;'
p903
tp904
Rp905
ag2
(g6
S'\xc9\xb7\xd9:'
p906
tp907
Rp908
ag2
(g6
S'y\x88\xa2;'
p909
tp910
Rp911
ag2
(g6
S'\xcf!\xe3;'
p912
tp913
Rp914
ag2
(g6
S'\x0cg+;'
p915
tp916
Rp917
ag2
(g6
S'\xba\x87\x0c;'
p918
tp919
Rp920
ag2
(g6
S'\x9b\xb9\xb69'
p921
tp922
Rp923
ag2
(g6
S'7\x8b\xcf:'
p924
tp925
Rp926
ag2
(g6
S'q\xfa\xf6:'
p927
tp928
Rp929
ag2
(g6
S'\x05E\xc6;'
p930
tp931
Rp932
ag2
(g6
S'\x04\xdcI;'
p933
tp934
Rp935
ag2
(g6
S'\xab\x0cQ:'
p936
tp937
Rp938
ag2
(g6
S'\xe9eR;'
p939
tp940
Rp941
ag2
(g6
S'\xb5\x00\xa7;'
p942
tp943
Rp944
ag2
(g6
S'#\xaaR<'
p945
tp946
Rp947
ag2
(g6
S'\x82\xfeh;'
p948
tp949
Rp950
ag2
(g6
S'o6\xd5:'
p951
tp952
Rp953
ag2
(g6
S'\xe3NI;'
p954
tp955
Rp956
ag2
(g6
S'\xc5^\x9d;'
p957
tp958
Rp959
ag2
(g6
S'h\x1e\x90;'
p960
tp961
Rp962
ag2
(g6
S'P8\xe9:'
p963
tp964
Rp965
ag2
(g6
S'H\xe5\x8d8'
p966
tp967
Rp968
ag2
(g6
S'K\r\xc3:'
p969
tp970
Rp971
ag2
(g6
S'\x1bZ{;'
p972
tp973
Rp974
ag2
(g6
S'\xaa\x84\x80;'
p975
tp976
Rp977
ag2
(g6
S'\x8a\xc7\x958'
p978
tp979
Rp980
ag2
(g6
S'0\xf5\xf0:'
p981
tp982
Rp983
ag2
(g6
S'\xd4\x1a\x98;'
p984
tp985
Rp986
ag2
(g6
S'yel;'
p987
tp988
Rp989
ag2
(g6
S'`\xbe\xb9:'
p990
tp991
Rp992
ag2
(g6
S'\xd8\x1f\x10;'
p993
tp994
Rp995
ag2
(g6
S'\x05\xb1s;'
p996
tp997
Rp998
ag2
(g6
S'\xfb\xfbi;'
p999
tp1000
Rp1001
ag2
(g6
S'\x14\x91:;'
p1002
tp1003
Rp1004
ag2
(g6
S'\xec\xcc\x02<'
p1005
tp1006
Rp1007
ag2
(g6
S'\xcb\xe6\xb7;'
p1008
tp1009
Rp1010
ag2
(g6
S':\xa66;'
p1011
tp1012
Rp1013
ag2
(g6
S'\xb4D\x8e;'
p1014
tp1015
Rp1016
ag2
(g6
S'\xdaP\xea;'
p1017
tp1018
Rp1019
ag2
(g6
S'\x1aqR;'
p1020
tp1021
Rp1022
ag2
(g6
S'cZ\xb5;'
p1023
tp1024
Rp1025
ag2
(g6
S'\t\xe2\xce:'
p1026
tp1027
Rp1028
ag2
(g6
S'\x1aH\xcd;'
p1029
tp1030
Rp1031
ag2
(g6
S'\x9b\x08/9'
p1032
tp1033
Rp1034
ag2
(g6
S'\xbc\xf8\xca:'
p1035
tp1036
Rp1037
ag2
(g6
S'q0m:'
p1038
tp1039
Rp1040
ag2
(g6
S'f\xc75;'
p1041
tp1042
Rp1043
ag2
(g6
S'\x83\n\x05;'
p1044
tp1045
Rp1046
ag2
(g6
S'3%<<'
p1047
tp1048
Rp1049
ag2
(g6
S'\xc7\x15\x9f;'
p1050
tp1051
Rp1052
ag2
(g6
S'Z\xdd\x89:'
p1053
tp1054
Rp1055
ag2
(g6
S'\xb8\xad\xe6:'
p1056
tp1057
Rp1058
ag2
(g6
S',0\xea:'
p1059
tp1060
Rp1061
ag2
(g6
S'\x81C\r;'
p1062
tp1063
Rp1064
ag2
(g6
S'\xd9,\x00;'
p1065
tp1066
Rp1067
ag2
(g6
S'\x87\xdeE:'
p1068
tp1069
Rp1070
ag2
(g6
S' & ;'
p1071
tp1072
Rp1073
ag2
(g6
S'\x85\x18\xe4:'
p1074
tp1075
Rp1076
ag2
(g6
S'`\xf5\xd0:'
p1077
tp1078
Rp1079
ag2
(g6
S'#\xe0\x85;'
p1080
tp1081
Rp1082
ag2
(g6
S'\x06\xbe":'
p1083
tp1084
Rp1085
ag2
(g6
S'\x14\x85\\;'
p1086
tp1087
Rp1088
ag2
(g6
S':S@;'
p1089
tp1090
Rp1091
ag2
(g6
S'5\xfd\n<'
p1092
tp1093
Rp1094
ag2
(g6
S'\xcd\x87\x9a;'
p1095
tp1096
Rp1097
ag2
(g6
S'\x1e\xd5\xb7:'
p1098
tp1099
Rp1100
ag2
(g6
S'\xb5\xf0\x8a:'
p1101
tp1102
Rp1103
ag2
(g6
S'\xeb*\xaa;'
p1104
tp1105
Rp1106
ag2
(g6
S"\r\x1c';"
p1107
tp1108
Rp1109
ag2
(g6
S'\xcb(\x90:'
p1110
tp1111
Rp1112
ag2
(g6
S'\xd9\xf4\x89:'
p1113
tp1114
Rp1115
ag2
(g6
S't2\x15;'
p1116
tp1117
Rp1118
ag2
(g6
S'j\x1bU;'
p1119
tp1120
Rp1121
ag2
(g6
S'\xed+9<'
p1122
tp1123
Rp1124
ag2
(g6
S'1\x84\xdf;'
p1125
tp1126
Rp1127
ag2
(g6
S'+\xb2*;'
p1128
tp1129
Rp1130
ag2
(g6
S'`\xf0\xb3:'
p1131
tp1132
Rp1133
ag2
(g6
S'\xac`\x84;'
p1134
tp1135
Rp1136
ag2
(g6
S'U\x0c\xfb:'
p1137
tp1138
Rp1139
ag2
(g6
S'\x9a#\xe4:'
p1140
tp1141
Rp1142
ag2
(g6
S'\xf2C!:'
p1143
tp1144
Rp1145
ag2
(g6
S'Up\xff:'
p1146
tp1147
Rp1148
ag2
(g6
S'\x10\xeb\x10;'
p1149
tp1150
Rp1151
ag2
(g6
S'cAv;'
p1152
tp1153
Rp1154
ag2
(g6
S'\xeb\xba\xbe;'
p1155
tp1156
Rp1157
ag2
(g6
S'WH\x06;'
p1158
tp1159
Rp1160
ag2
(g6
S'>\xe0\x8c;'
p1161
tp1162
Rp1163
ag2
(g6
S'Iv\xd1;'
p1164
tp1165
Rp1166
ag2
(g6
S'\xb1\xac\xc8:'
p1167
tp1168
Rp1169
ag2
(g6
S'H\xcf$;'
p1170
tp1171
Rp1172
ag2
(g6
S'U\x18\xe6;'
p1173
tp1174
Rp1175
ag2
(g6
S'\xe6\xb6\xbb:'
p1176
tp1177
Rp1178
ag2
(g6
S'\xa0W";'
p1179
tp1180
Rp1181
ag2
(g6
S'\x1f\xf6\\<'
p1182
tp1183
Rp1184
ag2
(g6
S'rWC;'
p1185
tp1186
Rp1187
ag2
(g6
S'\x12T.:'
p1188
tp1189
Rp1190
ag2
(g6
S'\xde\xcd+;'
p1191
tp1192
Rp1193
ag2
(g6
S'\x02\xc0\x8c;'
p1194
tp1195
Rp1196
ag2
(g6
S'3\xf5\xba;'
p1197
tp1198
Rp1199
ag2
(g6
S'\xa5\x1f\x19;'
p1200
tp1201
Rp1202
ag2
(g6
S'\x1b\xe2\xc4:'
p1203
tp1204
Rp1205
ag2
(g6
S'\x11\x83m;'
p1206
tp1207
Rp1208
ag2
(g6
S'\xd2b\xa19'
p1209
tp1210
Rp1211
ag2
(g6
S'\xe5\x83r;'
p1212
tp1213
Rp1214
ag2
(g6
S'9\x92\xc8:'
p1215
tp1216
Rp1217
ag2
(g6
S'\xa8\xb4\x8a;'
p1218
tp1219
Rp1220
ag2
(g6
S'1,\x0e:'
p1221
tp1222
Rp1223
ag2
(g6
S'[\xa0\x1b;'
p1224
tp1225
Rp1226
ag2
(g6
S'0FM;'
p1227
tp1228
Rp1229
ag2
(g6
S'g\xddN;'
p1230
tp1231
Rp1232
ag2
(g6
S'x\x05\xd2;'
p1233
tp1234
Rp1235
ag2
(g6
S'{\xc6\x04<'
p1236
tp1237
Rp1238
ag2
(g6
S'\x0e\xffL;'
p1239
tp1240
Rp1241
ag2
(g6
S' &\xbd;'
p1242
tp1243
Rp1244
ag2
(g6
S'0\x03x;'
p1245
tp1246
Rp1247
ag2
(g6
S'\xcb\x8a&;'
p1248
tp1249
Rp1250
ag2
(g6
S'1l\xf8:'
p1251
tp1252
Rp1253
ag2
(g6
S'8\x01\xfc:'
p1254
tp1255
Rp1256
ag2
(g6
S'\xb1F8<'
p1257
tp1258
Rp1259
ag2
(g6
S'\x8c\xf4\xa6:'
p1260
tp1261
Rp1262
ag2
(g6
S'`W\x12;'
p1263
tp1264
Rp1265
ag2
(g6
S'\xfe\xd6g;'
p1266
tp1267
Rp1268
ag2
(g6
S'\xf1&\xa7:'
p1269
tp1270
Rp1271
ag2
(g6
S'~\x81\x98;'
p1272
tp1273
Rp1274
ag2
(g6
S'\x8b\xa1\xa5;'
p1275
tp1276
Rp1277
ag2
(g6
S'\xf7\xc1<;'
p1278
tp1279
Rp1280
ag2
(g6
S'\xa0\xc8L;'
p1281
tp1282
Rp1283
ag2
(g6
S'\x96\xa6\x17;'
p1284
tp1285
Rp1286
ag2
(g6
S'\x0c\x1b\xf9;'
p1287
tp1288
Rp1289
ag2
(g6
S'\xec\xa8\xf2:'
p1290
tp1291
Rp1292
ag2
(g6
S'\x1aM\x03<'
p1293
tp1294
Rp1295
ag2
(g6
S'\xab\x8b\xe5:'
p1296
tp1297
Rp1298
ag2
(g6
S'\x93q$;'
p1299
tp1300
Rp1301
ag2
(g6
S'\xa43\xab:'
p1302
tp1303
Rp1304
ag2
(g6
S'\xbc\xae\x05<'
p1305
tp1306
Rp1307
ag2
(g6
S'F\xfdV;'
p1308
tp1309
Rp1310
ag2
(g6
S'\xd9\x84k;'
p1311
tp1312
Rp1313
ag2
(g6
S'\xf9\xf4\xc7;'
p1314
tp1315
Rp1316
ag2
(g6
S'\xe8q\x00;'
p1317
tp1318
Rp1319
ag2
(g6
S'-\xb0\x07;'
p1320
tp1321
Rp1322
ag2
(g6
S'\xe3\x06,;'
p1323
tp1324
Rp1325
ag2
(g6
S'\x13\xae\x7f;'
p1326
tp1327
Rp1328
ag2
(g6
S'\xec\xa0\x8d:'
p1329
tp1330
Rp1331
ag2
(g6
S'\xbd\x98H;'
p1332
tp1333
Rp1334
ag2
(g6
S'|\x06!<'
p1335
tp1336
Rp1337
ag2
(g6
S'\xdc\xf7\xa2;'
p1338
tp1339
Rp1340
ag2
(g6
S'"K\xd5<'
p1341
tp1342
Rp1343
ag2
(g6
S'\x01dA:'
p1344
tp1345
Rp1346
ag2
(g6
S'\xfd\xb7\xbb:'
p1347
tp1348
Rp1349
ag2
(g6
S'=\xb9$;'
p1350
tp1351
Rp1352
ag2
(g6
S'\xe0\xcb`;'
p1353
tp1354
Rp1355
ag2
(g6
S'\xfc\x19\x1d;'
p1356
tp1357
Rp1358
ag2
(g6
S'\xaaM=;'
p1359
tp1360
Rp1361
ag2
(g6
S'\x02\x11\xe1;'
p1362
tp1363
Rp1364
ag2
(g6
S'\xcbO\x86;'
p1365
tp1366
Rp1367
ag2
(g6
S'f\x85>;'
p1368
tp1369
Rp1370
ag2
(g6
S'\xd4d\x10;'
p1371
tp1372
Rp1373
ag2
(g6
S'&\xaa\xa4:'
p1374
tp1375
Rp1376
ag2
(g6
S'\xc7\xe4\x9a;'
p1377
tp1378
Rp1379
ag2
(g6
S'\x96a6;'
p1380
tp1381
Rp1382
ag2
(g6
S"\x93'd;"
p1383
tp1384
Rp1385
ag2
(g6
S'\xd3)1;'
p1386
tp1387
Rp1388
ag2
(g6
S'\x02\x03g;'
p1389
tp1390
Rp1391
ag2
(g6
S'w\xad\x92;'
p1392
tp1393
Rp1394
ag2
(g6
S'\x94\x97\x16<'
p1395
tp1396
Rp1397
ag2
(g6
S'\xf9\x96\xd2;'
p1398
tp1399
Rp1400
ag2
(g6
S'+\xb9\x03;'
p1401
tp1402
Rp1403
ag2
(g6
S')\x9c%:'
p1404
tp1405
Rp1406
ag2
(g6
S'\x11\x98\x00;'
p1407
tp1408
Rp1409
ag2
(g6
S'\xef^\x97:'
p1410
tp1411
Rp1412
ag2
(g6
S'\xe1H\xb1;'
p1413
tp1414
Rp1415
ag2
(g6
S'-\x1fI;'
p1416
tp1417
Rp1418
ag2
(g6
S'\x8e\xb1\xa8;'
p1419
tp1420
Rp1421
ag2
(g6
S'~\xc6\x1e;'
p1422
tp1423
Rp1424
ag2
(g6
S'\x85\xd6\x92;'
p1425
tp1426
Rp1427
ag2
(g6
S'.C\x85;'
p1428
tp1429
Rp1430
ag2
(g6
S'72c<'
p1431
tp1432
Rp1433
ag2
(g6
S'\xa8\xac\x03;'
p1434
tp1435
Rp1436
ag2
(g6
S'"\x9bz;'
p1437
tp1438
Rp1439
ag2
(g6
S'\xda\x89_9'
p1440
tp1441
Rp1442
ag2
(g6
S'ws\x1a;'
p1443
tp1444
Rp1445
ag2
(g6
S'f\xf1\xf99'
p1446
tp1447
Rp1448
ag2
(g6
S'Q\x7f\xa5:'
p1449
tp1450
Rp1451
ag2
(g6
S'\xd2>\x89;'
p1452
tp1453
Rp1454
ag2
(g6
S'&\xb7w;'
p1455
tp1456
Rp1457
ag2
(g6
S'\x88\xfe\xbb;'
p1458
tp1459
Rp1460
ag2
(g6
S'\x9br";'
p1461
tp1462
Rp1463
ag2
(g6
S'\x16\x1a\x96:'
p1464
tp1465
Rp1466
ag2
(g6
S'o)\xdb;'
p1467
tp1468
Rp1469
ag2
(g6
S'w\xf8\x99;'
p1470
tp1471
Rp1472
ag2
(g6
S'\xe3u%;'
p1473
tp1474
Rp1475
ag2
(g6
S'.\xa3(;'
p1476
tp1477
Rp1478
ag2
(g6
S'\xefj\xcc9'
p1479
tp1480
Rp1481
ag2
(g6
S'\x1dq\xd9:'
p1482
tp1483
Rp1484
ag2
(g6
S'\xb1\xfd\x0c9'
p1485
tp1486
Rp1487
ag2
(g6
S':l\x97:'
p1488
tp1489
Rp1490
ag2
(g6
S'}\xc5\x7f:'
p1491
tp1492
Rp1493
ag2
(g6
S'\xb3*\x8f;'
p1494
tp1495
Rp1496
ag2
(g6
S'\xa6\xf2S;'
p1497
tp1498
Rp1499
ag2
(g6
S'\xb9\xfb\x8e;'
p1500
tp1501
Rp1502
ag2
(g6
S'=:p:'
p1503
tp1504
Rp1505
ag2
(g6
S'\xb5*@;'
p1506
tp1507
Rp1508
ag2
(g6
S'\xb7\xd5.;'
p1509
tp1510
Rp1511
ag2
(g6
S'jd\x95;'
p1512
tp1513
Rp1514
ag2
(g6
S'\xacB\xc2:'
p1515
tp1516
Rp1517
ag2
(g6
S'\xb2\xec\x1f9'
p1518
tp1519
Rp1520
ag2
(g6
S'\x17\xfc\x8f:'
p1521
tp1522
Rp1523
ag2
(g6
S'\xeen\x06;'
p1524
tp1525
Rp1526
ag2
(g6
S'&A\xb4;'
p1527
tp1528
Rp1529
ag2
(g6
S'\xf9\xb3\xa0:'
p1530
tp1531
Rp1532
ag2
(g6
S'\xd9\x91I:'
p1533
tp1534
Rp1535
ag2
(g6
S'K\xb4\xea;'
p1536
tp1537
Rp1538
ag2
(g6
S'\xdc\xc3\x0f;'
p1539
tp1540
Rp1541
ag2
(g6
S'\x87.\xf7:'
p1542
tp1543
Rp1544
ag2
(g6
S'\x83\xc2\x7f;'
p1545
tp1546
Rp1547
ag2
(g6
S']\x06\x9c;'
p1548
tp1549
Rp1550
ag2
(g6
S'3\x86\xa2;'
p1551
tp1552
Rp1553
ag2
(g6
S'\xe8\xf0\xab;'
p1554
tp1555
Rp1556
ag2
(g6
S'\x9f\xc26<'
p1557
tp1558
Rp1559
ag2
(g6
S'\xf0\x8bG;'
p1560
tp1561
Rp1562
ag2
(g6
S'3\x8aB;'
p1563
tp1564
Rp1565
ag2
(g6
S'O\x08\xda;'
p1566
tp1567
Rp1568
ag2
(g6
S'\x9d\x1a\x02;'
p1569
tp1570
Rp1571
ag2
(g6
S'c\x88\xf9:'
p1572
tp1573
Rp1574
ag2
(g6
S'H\xfe\x89<'
p1575
tp1576
Rp1577
ag2
(g6
S'`$\xe8:'
p1578
tp1579
Rp1580
ag2
(g6
S'\xb1\xa7\x88:'
p1581
tp1582
Rp1583
ag2
(g6
S'\x83\xe1\x98;'
p1584
tp1585
Rp1586
ag2
(g6
S'B\t\xac:'
p1587
tp1588
Rp1589
ag2
(g6
S'q*\xcc;'
p1590
tp1591
Rp1592
ag2
(g6
S'\xb3\xe4);'
p1593
tp1594
Rp1595
ag2
(g6
S'\xb8p\x93;'
p1596
tp1597
Rp1598
ag2
(g6
S'\xd7\xe9\x1b;'
p1599
tp1600
Rp1601
ag2
(g6
S':O\x1e;'
p1602
tp1603
Rp1604
ag2
(g6
S'T\x1e\r;'
p1605
tp1606
Rp1607
ag2
(g6
S'\x07\x9d\x11<'
p1608
tp1609
Rp1610
ag2
(g6
S'X\x81V;'
p1611
tp1612
Rp1613
ag2
(g6
S'\x13 \x14;'
p1614
tp1615
Rp1616
ag2
(g6
S'K&\x7f;'
p1617
tp1618
Rp1619
ag2
(g6
S'\xc6\x7fs;'
p1620
tp1621
Rp1622
ag2
(g6
S'\xa9[\x81;'
p1623
tp1624
Rp1625
ag2
(g6
S'\xe7\x16$;'
p1626
tp1627
Rp1628
ag2
(g6
S'\xe6]\x83;'
p1629
tp1630
Rp1631
ag2
(g6
S'\x1d\xf0M;'
p1632
tp1633
Rp1634
ag2
(g6
S'\xb8\xc3\x06;'
p1635
tp1636
Rp1637
ag2
(g6
S'\xf6\x0c\x00;'
p1638
tp1639
Rp1640
ag2
(g6
S'\xcb\x7f\xbe;'
p1641
tp1642
Rp1643
ag2
(g6
S'\xb2q\xa1:'
p1644
tp1645
Rp1646
ag2
(g6
S'\xebo\xb9:'
p1647
tp1648
Rp1649
ag2
(g6
S'wS\xd9;'
p1650
tp1651
Rp1652
ag2
(g6
S'K\x08\x90:'
p1653
tp1654
Rp1655
ag2
(g6
S'\xe6\xc9\x18<'
p1656
tp1657
Rp1658
ag2
(g6
S'\xc9\x9a\xb4:'
p1659
tp1660
Rp1661
ag2
(g6
S'Tp\xc3;'
p1662
tp1663
Rp1664
ag2
(g6
S'\x8e\x0f6;'
p1665
tp1666
Rp1667
ag2
(g6
S'\x00\x06I;'
p1668
tp1669
Rp1670
ag2
(g6
S'&}\xad;'
p1671
tp1672
Rp1673
ag2
(g6
S'#\xc63<'
p1674
tp1675
Rp1676
ag2
(g6
S'\xc6\xfd\xe0:'
p1677
tp1678
Rp1679
ag2
(g6
S'^\xa3\xc6:'
p1680
tp1681
Rp1682
ag2
(g6
S'\x99j\x8d;'
p1683
tp1684
Rp1685
ag2
(g6
S'P{\xd3;'
p1686
tp1687
Rp1688
ag2
(g6
S'\x98\xa4=;'
p1689
tp1690
Rp1691
ag2
(g6
S'`\xd8\xc9:'
p1692
tp1693
Rp1694
ag2
(g6
S'\x82RO;'
p1695
tp1696
Rp1697
ag2
(g6
S'\x01\x91\x8c;'
p1698
tp1699
Rp1700
ag2
(g6
S'\xcdh\x00;'
p1701
tp1702
Rp1703
ag2
(g6
S'\xbf\xdeC;'
p1704
tp1705
Rp1706
ag2
(g6
S'%\xd7<;'
p1707
tp1708
Rp1709
ag2
(g6
S'\xe0W\x03<'
p1710
tp1711
Rp1712
ag2
(g6
S'a]\x91;'
p1713
tp1714
Rp1715
ag2
(g6
S'\xfd\xad\x84;'
p1716
tp1717
Rp1718
ag2
(g6
S'\xdc}\xeb;'
p1719
tp1720
Rp1721
ag2
(g6
S'`\x14\xb0;'
p1722
tp1723
Rp1724
ag2
(g6
S'lJ\xb5;'
p1725
tp1726
Rp1727
ag2
(g6
S'\xd7\xbcr;'
p1728
tp1729
Rp1730
ag2
(g6
S'\x11\xffi;'
p1731
tp1732
Rp1733
ag2
(g6
S'\xc6ez9'
p1734
tp1735
Rp1736
ag2
(g6
S"a|'<"
p1737
tp1738
Rp1739
ag2
(g6
S')\x81\xc9;'
p1740
tp1741
Rp1742
ag2
(g6
S'\xde]h;'
p1743
tp1744
Rp1745
ag2
(g6
S'1",<'
p1746
tp1747
Rp1748
ag2
(g6
S'\xac\xfd\xa1;'
p1749
tp1750
Rp1751
ag2
(g6
S'\xba\x1c\xd7;'
p1752
tp1753
Rp1754
ag2
(g6
S'\xc5\xa1\x83;'
p1755
tp1756
Rp1757
ag2
(g6
S'\x8f\x7f\xd5;'
p1758
tp1759
Rp1760
ag2
(g6
S'4LZ:'
p1761
tp1762
Rp1763
ag2
(g6
S'$`\n;'
p1764
tp1765
Rp1766
ag2
(g6
S'I\xce\x01<'
p1767
tp1768
Rp1769
ag2
(g6
S'\x1dW\xb4;'
p1770
tp1771
Rp1772
ag2
(g6
S'\xf2\xa3\n;'
p1773
tp1774
Rp1775
ag2
(g6
S'b4\xbc;'
p1776
tp1777
Rp1778
ag2
(g6
S'\\#\xd9;'
p1779
tp1780
Rp1781
ag2
(g6
S'\x9f\xcf0;'
p1782
tp1783
Rp1784
ag2
(g6
S'H\x14p<'
p1785
tp1786
Rp1787
ag2
(g6
S'T\x8a\xac;'
p1788
tp1789
Rp1790
ag2
(g6
S'\xd1\xdf\xc5:'
p1791
tp1792
Rp1793
ag2
(g6
S'\ny\xc6;'
p1794
tp1795
Rp1796
ag2
(g6
S'7\xd6\xc9:'
p1797
tp1798
Rp1799
ag2
(g6
S'\x9d\x11\x15<'
p1800
tp1801
Rp1802
ag2
(g6
S'w\xc2\xb8;'
p1803
tp1804
Rp1805
ag2
(g6
S'\x14b\x94;'
p1806
tp1807
Rp1808
ag2
(g6
S')\xbd\xed:'
p1809
tp1810
Rp1811
ag2
(g6
S'\x83\xbb.:'
p1812
tp1813
Rp1814
ag2
(g6
S'fMn;'
p1815
tp1816
Rp1817
ag2
(g6
S'\t\xfb\x86;'
p1818
tp1819
Rp1820
ag2
(g6
S'm)\xf0:'
p1821
tp1822
Rp1823
ag2
(g6
S'="z;'
p1824
tp1825
Rp1826
ag2
(g6
S'\xf1\x8aQ;'
p1827
tp1828
Rp1829
ag2
(g6
S'\xcb\xeb\x019'
p1830
tp1831
Rp1832
ag2
(g6
S't3\x13;'
p1833
tp1834
Rp1835
ag2
(g6
S'a\xdd\xb0:'
p1836
tp1837
Rp1838
ag2
(g6
S'\x16L\x13<'
p1839
tp1840
Rp1841
ag2
(g6
S'\xa4\xd4\xe0:'
p1842
tp1843
Rp1844
ag2
(g6
S'\xbf\xf2\x98;'
p1845
tp1846
Rp1847
ag2
(g6
S'<Z\xba:'
p1848
tp1849
Rp1850
ag2
(g6
S'\x16\x17\xdc;'
p1851
tp1852
Rp1853
ag2
(g6
S'\xc6 \xff:'
p1854
tp1855
Rp1856
ag2
(g6
S'D\xac\xc5:'
p1857
tp1858
Rp1859
ag2
(g6
S'.<u;'
p1860
tp1861
Rp1862
ag2
(g6
S'\x1a\xd1\x02;'
p1863
tp1864
Rp1865
ag2
(g6
S'\xacp\x87;'
p1866
tp1867
Rp1868
ag2
(g6
S'K8\xee8'
p1869
tp1870
Rp1871
ag2
(g6
S'oS\xc2;'
p1872
tp1873
Rp1874
ag2
(g6
S'\x82LX;'
p1875
tp1876
Rp1877
ag2
(g6
S'\x94\xa9\x97:'
p1878
tp1879
Rp1880
ag2
(g6
S'\x1d\xf3\xff:'
p1881
tp1882
Rp1883
ag2
(g6
S'\x17\xa8 ;'
p1884
tp1885
Rp1886
ag2
(g6
S'\xf7a&;'
p1887
tp1888
Rp1889
ag2
(g6
S'\xda\xd4\xa1:'
p1890
tp1891
Rp1892
ag2
(g6
S'e\xbd\x8b;'
p1893
tp1894
Rp1895
ag2
(g6
S'\xd4ic:'
p1896
tp1897
Rp1898
ag2
(g6
S'w\x8er;'
p1899
tp1900
Rp1901
ag2
(g6
S'\x96d\xb2:'
p1902
tp1903
Rp1904
ag2
(g6
S'\xa1s\x9d;'
p1905
tp1906
Rp1907
ag2
(g6
S'\xd5\xad\xa8;'
p1908
tp1909
Rp1910
ag2
(g6
S'\x18\xf2\x82;'
p1911
tp1912
Rp1913
ag2
(g6
S'+\xc0\xfc:'
p1914
tp1915
Rp1916
ag2
(g6
S'\x82t\x01;'
p1917
tp1918
Rp1919
ag2
(g6
S'\x93\x01j;'
p1920
tp1921
Rp1922
ag2
(g6
S'\x9f \x8f;'
p1923
tp1924
Rp1925
ag2
(g6
S'\xb8\x97x:'
p1926
tp1927
Rp1928
ag2
(g6
S'\xc1Dr:'
p1929
tp1930
Rp1931
ag2
(g6
S'?\xbb\x96;'
p1932
tp1933
Rp1934
ag2
(g6
S'\x11c\x06;'
p1935
tp1936
Rp1937
ag2
(g6
S'\xc4\xf5\x0b;'
p1938
tp1939
Rp1940
ag2
(g6
S'\t\xac8;'
p1941
tp1942
Rp1943
ag2
(g6
S'\x8f\x1a\x1e<'
p1944
tp1945
Rp1946
ag2
(g6
S'L\x19\x16<'
p1947
tp1948
Rp1949
ag2
(g6
S'jn}:'
p1950
tp1951
Rp1952
ag2
(g6
S'\x87y\x90:'
p1953
tp1954
Rp1955
ag2
(g6
S'\xdf\x92I;'
p1956
tp1957
Rp1958
ag2
(g6
S'D(\xf9;'
p1959
tp1960
Rp1961
ag2
(g6
S'\xcdo\xdc9'
p1962
tp1963
Rp1964
ag2
(g6
S'\x82\xce\x02;'
p1965
tp1966
Rp1967
ag2
(g6
S'\xcd\xc1\xec;'
p1968
tp1969
Rp1970
ag2
(g6
S'\xbf\x84\xec:'
p1971
tp1972
Rp1973
ag2
(g6
S'\x8a\x89\xb0:'
p1974
tp1975
Rp1976
ag2
(g6
S'\x05\x92P<'
p1977
tp1978
Rp1979
ag2
(g6
S'\xcb8\x12;'
p1980
tp1981
Rp1982
ag2
(g6
S'\xa0z\xd9;'
p1983
tp1984
Rp1985
ag2
(g6
S'Py$;'
p1986
tp1987
Rp1988
ag2
(g6
S'\xab\xa1\xec;'
p1989
tp1990
Rp1991
ag2
(g6
S'\xb6\xa7\xa2;'
p1992
tp1993
Rp1994
ag2
(g6
S'*\xdf3:'
p1995
tp1996
Rp1997
ag2
(g6
S'\xac\xc7\xe4;'
p1998
tp1999
Rp2000
ag2
(g6
S'{v\xa3;'
p2001
tp2002
Rp2003
ag2
(g6
S'\xde\xe5m;'
p2004
tp2005
Rp2006
ag2
(g6
S'\x1b=\xa9;'
p2007
tp2008
Rp2009
ag2
(g6
S'\x00\xcb\x1f;'
p2010
tp2011
Rp2012
ag2
(g6
S'\xb8\xee2;'
p2013
tp2014
Rp2015
ag2
(g6
S'\xdf\xc3O;'
p2016
tp2017
Rp2018
ag2
(g6
S'\xa9\xdd\xe3;'
p2019
tp2020
Rp2021
ag2
(g6
S'\x16\xc6\xfb;'
p2022
tp2023
Rp2024
ag2
(g6
S'\x89\x8b\x02<'
p2025
tp2026
Rp2027
ag2
(g6
S'\xcb\x92\xc9:'
p2028
tp2029
Rp2030
ag2
(g6
S'\xb6\x92,<'
p2031
tp2032
Rp2033
ag2
(g6
S'r\xfeW;'
p2034
tp2035
Rp2036
ag2
(g6
S'\xa9\xaah:'
p2037
tp2038
Rp2039
ag2
(g6
S'}\x96\xc2:'
p2040
tp2041
Rp2042
ag2
(g6
S'a\xc9\xdf:'
p2043
tp2044
Rp2045
ag2
(g6
S'\x9b\xba\x93;'
p2046
tp2047
Rp2048
ag2
(g6
S'\xb3\xb3\x8a:'
p2049
tp2050
Rp2051
ag2
(g6
S'?\x98\x9a;'
p2052
tp2053
Rp2054
ag2
(g6
S'\xd4\xae\x9a:'
p2055
tp2056
Rp2057
ag2
(g6
S'\xc3av:'
p2058
tp2059
Rp2060
ag2
(g6
S'\xe6%h;'
p2061
tp2062
Rp2063
ag2
(g6
S'H\x8aG;'
p2064
tp2065
Rp2066
ag2
(g6
S'^k\xaa;'
p2067
tp2068
Rp2069
ag2
(g6
S'\xfd\xbb$;'
p2070
tp2071
Rp2072
ag2
(g6
S'\xf4\xb9\x13<'
p2073
tp2074
Rp2075
ag2
(g6
S'\x02]\x9d;'
p2076
tp2077
Rp2078
ag2
(g6
S'\xa4\x01\x8e;'
p2079
tp2080
Rp2081
ag2
(g6
S'\x9e|\x04;'
p2082
tp2083
Rp2084
ag2
(g6
S'\t>C;'
p2085
tp2086
Rp2087
ag2
(g6
S'^\n@;'
p2088
tp2089
Rp2090
ag2
(g6
S'#\\\xd6<'
p2091
tp2092
Rp2093
ag2
(g6
S'7|\x08;'
p2094
tp2095
Rp2096
ag2
(g6
S'\xab\x0f\xde;'
p2097
tp2098
Rp2099
ag2
(g6
S'\x8e\x13O;'
p2100
tp2101
Rp2102
ag2
(g6
S'5\xa2\xd8;'
p2103
tp2104
Rp2105
ag2
(g6
S'\xcf\xe7);'
p2106
tp2107
Rp2108
ag2
(g6
S'r\xb7\x9f;'
p2109
tp2110
Rp2111
ag2
(g6
S'\x8e\x9bf:'
p2112
tp2113
Rp2114
ag2
(g6
S'\x80q5;'
p2115
tp2116
Rp2117
ag2
(g6
S'=#[;'
p2118
tp2119
Rp2120
ag2
(g6
S's\x9d\x8b;'
p2121
tp2122
Rp2123
ag2
(g6
S'\\\xb1\x9f;'
p2124
tp2125
Rp2126
ag2
(g6
S'\xc7\xcc\xbf;'
p2127
tp2128
Rp2129
ag2
(g6
S'\xda6\x1e<'
p2130
tp2131
Rp2132
ag2
(g6
S'\n4i:'
p2133
tp2134
Rp2135
ag2
(g6
S'\x8cP\x84;'
p2136
tp2137
Rp2138
ag2
(g6
S"\n\x83';"
p2139
tp2140
Rp2141
ag2
(g6
S'mb{:'
p2142
tp2143
Rp2144
ag2
(g6
S'\xb7F\x1c;'
p2145
tp2146
Rp2147
ag2
(g6
S'V\x10\xb9:'
p2148
tp2149
Rp2150
ag2
(g6
S'\x1by\xef;'
p2151
tp2152
Rp2153
ag2
(g6
S'5\xc7(;'
p2154
tp2155
Rp2156
ag2
(g6
S'1\xc3\xfb;'
p2157
tp2158
Rp2159
ag2
(g6
S'}t\xbf8'
p2160
tp2161
Rp2162
ag2
(g6
S'\x899\xf5:'
p2163
tp2164
Rp2165
ag2
(g6
S'&\xce\xed;'
p2166
tp2167
Rp2168
ag2
(g6
S'\xf9\xc3G:'
p2169
tp2170
Rp2171
ag2
(g6
S'\xac\xd5\x96;'
p2172
tp2173
Rp2174
ag2
(g6
S'\xfa\xf3\xab9'
p2175
tp2176
Rp2177
ag2
(g6
S'U\x04\xf4:'
p2178
tp2179
Rp2180
ag2
(g6
S'\xc4\x87n;'
p2181
tp2182
Rp2183
ag2
(g6
S'\x9az\x01;'
p2184
tp2185
Rp2186
ag2
(g6
S'\x83\xe5\x8c<'
p2187
tp2188
Rp2189
ag2
(g6
S'\xb3\xae\xb8:'
p2190
tp2191
Rp2192
ag2
(g6
S'\n\xa4s;'
p2193
tp2194
Rp2195
ag2
(g6
S"\xd0\xe4';"
p2196
tp2197
Rp2198
ag2
(g6
S'\x0eJ(;'
p2199
tp2200
Rp2201
ag2
(g6
S'\xd6\xe3\x8f:'
p2202
tp2203
Rp2204
ag2
(g6
S'}\xc9\xa2:'
p2205
tp2206
Rp2207
ag2
(g6
S'7A\x02;'
p2208
tp2209
Rp2210
ag2
(g6
S'\xb8\x02\xfe;'
p2211
tp2212
Rp2213
ag2
(g6
S'C\x03k;'
p2214
tp2215
Rp2216
ag2
(g6
S'\x06\x1b";'
p2217
tp2218
Rp2219
ag2
(g6
S'\x8ev\xfa:'
p2220
tp2221
Rp2222
ag2
(g6
S'\xc4\xfeV;'
p2223
tp2224
Rp2225
ag2
(g6
S'\xde\xc4\xe69'
p2226
tp2227
Rp2228
ag2
(g6
S'\x16\xe3\xcf9'
p2229
tp2230
Rp2231
ag2
(g6
S'\xeah\x07;'
p2232
tp2233
Rp2234
ag2
(g6
S']\t0:'
p2235
tp2236
Rp2237
ag2
(g6
S'qAo;'
p2238
tp2239
Rp2240
ag2
(g6
S'\x11q\xaa;'
p2241
tp2242
Rp2243
ag2
(g6
S'\xb8\xf0\x14;'
p2244
tp2245
Rp2246
ag2
(g6
S'\xd7]Q:'
p2247
tp2248
Rp2249
ag2
(g6
S'\xc3&p:'
p2250
tp2251
Rp2252
ag2
(g6
S'j\x169;'
p2253
tp2254
Rp2255
ag2
(g6
S'\x1d\xaf\xce;'
p2256
tp2257
Rp2258
ag2
(g6
S'\x11^4;'
p2259
tp2260
Rp2261
ag2
(g6
S'\x13\xc0v;'
p2262
tp2263
Rp2264
ag2
(g6
S'&\xf6q;'
p2265
tp2266
Rp2267
ag2
(g6
S'\xe6C\x8b;'
p2268
tp2269
Rp2270
ag2
(g6
S'\xc9\xf5\xbf9'
p2271
tp2272
Rp2273
ag2
(g6
S'\x1a\x8f\x8c;'
p2274
tp2275
Rp2276
ag2
(g6
S'\x8a\xed\x10<'
p2277
tp2278
Rp2279
ag2
(g6
S'\xc1\xdeh;'
p2280
tp2281
Rp2282
ag2
(g6
S'\xe0S\x16:'
p2283
tp2284
Rp2285
ag2
(g6
S'\xef\xc34;'
p2286
tp2287
Rp2288
ag2
(g6
S'\xf2:z;'
p2289
tp2290
Rp2291
ag2
(g6
S'F\xffQ:'
p2292
tp2293
Rp2294
ag2
(g6
S'}HP:'
p2295
tp2296
Rp2297
ag2
(g6
S'\t\x96X<'
p2298
tp2299
Rp2300
ag2
(g6
S'\xd5\xa6E:'
p2301
tp2302
Rp2303
ag2
(g6
S'\xbaXv;'
p2304
tp2305
Rp2306
ag2
(g6
S']\xb4\x91:'
p2307
tp2308
Rp2309
ag2
(g6
S'I\r\x06<'
p2310
tp2311
Rp2312
ag2
(g6
S'\xea=\xc48'
p2313
tp2314
Rp2315
ag2
(g6
S'\xfd\\U;'
p2316
tp2317
Rp2318
ag2
(g6
S'\xf4\xf0\n<'
p2319
tp2320
Rp2321
ag2
(g6
S'\n<\xf5;'
p2322
tp2323
Rp2324
ag2
(g6
S'\xd0\xa1|;'
p2325
tp2326
Rp2327
ag2
(g6
S'\x05\x91\xb8;'
p2328
tp2329
Rp2330
ag2
(g6
S'Y\x1dW;'
p2331
tp2332
Rp2333
ag2
(g6
S'\x0eX\x84:'
p2334
tp2335
Rp2336
ag2
(g6
S'\xda\x87j;'
p2337
tp2338
Rp2339
ag2
(g6
S'\\\xc6:;'
p2340
tp2341
Rp2342
ag2
(g6
S'\x86:\xd2;'
p2343
tp2344
Rp2345
ag2
(g6
S'\xa0\xe37;'
p2346
tp2347
Rp2348
ag2
(g6
S'\xb0X\x16:'
p2349
tp2350
Rp2351
ag2
(g6
S'$\x11h;'
p2352
tp2353
Rp2354
ag2
(g6
S'\x14$^;'
p2355
tp2356
Rp2357
ag2
(g6
S'i/\xb6;'
p2358
tp2359
Rp2360
ag2
(g6
S'\x83\x8d\x9b9'
p2361
tp2362
Rp2363
ag2
(g6
S'S \x0f<'
p2364
tp2365
Rp2366
ag2
(g6
S'\xaf)\x9c;'
p2367
tp2368
Rp2369
ag2
(g6
S"'\x12 ;"
p2370
tp2371
Rp2372
ag2
(g6
S'\xed\xab\x1f:'
p2373
tp2374
Rp2375
ag2
(g6
S'\xf5V\x86;'
p2376
tp2377
Rp2378
ag2
(g6
S'\xd4\xc7\xfe:'
p2379
tp2380
Rp2381
ag2
(g6
S'8\x067;'
p2382
tp2383
Rp2384
ag2
(g6
S'\xe4\xf3\x1e<'
p2385
tp2386
Rp2387
ag2
(g6
S'\xa2\x07[;'
p2388
tp2389
Rp2390
ag2
(g6
S'{\xe7\x99:'
p2391
tp2392
Rp2393
ag2
(g6
S'\x11E\xd99'
p2394
tp2395
Rp2396
ag2
(g6
S'7Q\x81<'
p2397
tp2398
Rp2399
ag2
(g6
S'\xda\xdcG;'
p2400
tp2401
Rp2402
ag2
(g6
S'\xc8\x86\xfa:'
p2403
tp2404
Rp2405
ag2
(g6
S'r\xa3\xb0:'
p2406
tp2407
Rp2408
ag2
(g6
S'\x1a\ni;'
p2409
tp2410
Rp2411
ag2
(g6
S'\\\x9fw;'
p2412
tp2413
Rp2414
ag2
(g6
S'fK\x1e;'
p2415
tp2416
Rp2417
ag2
(g6
S'k\xc5A;'
p2418
tp2419
Rp2420
ag2
(g6
S'\xfe\x840;'
p2421
tp2422
Rp2423
ag2
(g6
S'\x074\xb4:'
p2424
tp2425
Rp2426
ag2
(g6
S"{\xc4';"
p2427
tp2428
Rp2429
ag2
(g6
S'\xfag/<'
p2430
tp2431
Rp2432
ag2
(g6
S'8y\xd3;'
p2433
tp2434
Rp2435
ag2
(g6
S'+P\xc5;'
p2436
tp2437
Rp2438
ag2
(g6
S'\x11FV;'
p2439
tp2440
Rp2441
ag2
(g6
S'\x00^\xa1;'
p2442
tp2443
Rp2444
ag2
(g6
S'\xab\x8c\xd8;'
p2445
tp2446
Rp2447
ag2
(g6
S'\xef:\x83<'
p2448
tp2449
Rp2450
ag2
(g6
S'\x83#\x98;'
p2451
tp2452
Rp2453
ag2
(g6
S',\x1eZ:'
p2454
tp2455
Rp2456
ag2
(g6
S'qE*;'
p2457
tp2458
Rp2459
ag2
(g6
S'|N\r;'
p2460
tp2461
Rp2462
ag2
(g6
S'\x80\xa7A<'
p2463
tp2464
Rp2465
ag2
(g6
S'\x82\x8e2;'
p2466
tp2467
Rp2468
ag2
(g6
S'\xc2\x80\x92;'
p2469
tp2470
Rp2471
ag2
(g6
S'\x8f=(;'
p2472
tp2473
Rp2474
ag2
(g6
S'\x1a\x84\xa1;'
p2475
tp2476
Rp2477
ag2
(g6
S',\x08<;'
p2478
tp2479
Rp2480
ag2
(g6
S'\xfb\xff\xce;'
p2481
tp2482
Rp2483
ag2
(g6
S'\xf1\xce\x8b;'
p2484
tp2485
Rp2486
ag2
(g6
S'\xe6\xa1I;'
p2487
tp2488
Rp2489
ag2
(g6
S'C\x80\xeb:'
p2490
tp2491
Rp2492
ag2
(g6
S'\x85f^;'
p2493
tp2494
Rp2495
ag2
(g6
S'\x8c\x05\x97;'
p2496
tp2497
Rp2498
ag2
(g6
S'\x11\xaeu;'
p2499
tp2500
Rp2501
ag2
(g6
S'\xbf\xe5\xe8:'
p2502
tp2503
Rp2504
ag2
(g6
S' IL;'
p2505
tp2506
Rp2507
ag2
(g6
S'3&{;'
p2508
tp2509
Rp2510
ag2
(g6
S'w\xfa\xb0;'
p2511
tp2512
Rp2513
ag2
(g6
S'\x94\xbd\xaf:'
p2514
tp2515
Rp2516
ag2
(g6
S'\xf1\x14.:'
p2517
tp2518
Rp2519
ag2
(g6
S'W*\x1b<'
p2520
tp2521
Rp2522
ag2
(g6
S'\x96V\xfc:'
p2523
tp2524
Rp2525
ag2
(g6
S'\x96\xf1\x96;'
p2526
tp2527
Rp2528
ag2
(g6
S'\xfa\x172;'
p2529
tp2530
Rp2531
ag2
(g6
S'\xe5\xb6\xa3;'
p2532
tp2533
Rp2534
ag2
(g6
S'\xf1eK;'
p2535
tp2536
Rp2537
ag2
(g6
S'\x88\xf6\x98;'
p2538
tp2539
Rp2540
ag2
(g6
S'\x9a\x03\xb3:'
p2541
tp2542
Rp2543
ag2
(g6
S'^FG:'
p2544
tp2545
Rp2546
ag2
(g6
S'\xc9\xd9\xd5;'
p2547
tp2548
Rp2549
ag2
(g6
S'\xe0D\xb9:'
p2550
tp2551
Rp2552
ag2
(g6
S'\x96m\xf8:'
p2553
tp2554
Rp2555
ag2
(g6
S'r\xad\x02;'
p2556
tp2557
Rp2558
ag2
(g6
S'\xac\xe5\x8d9'
p2559
tp2560
Rp2561
ag2
(g6
S'\xe3\xdb\xa9:'
p2562
tp2563
Rp2564
ag2
(g6
S'H\x9a2;'
p2565
tp2566
Rp2567
ag2
(g6
S'\x02\xd3\xf5:'
p2568
tp2569
Rp2570
ag2
(g6
S'\x1b\x86\x8d;'
p2571
tp2572
Rp2573
ag2
(g6
S'7\xe0\xda;'
p2574
tp2575
Rp2576
ag2
(g6
S'\xed\x93\xf2;'
p2577
tp2578
Rp2579
ag2
(g6
S'\xd9\xe1\x02;'
p2580
tp2581
Rp2582
ag2
(g6
S' b\xc5;'
p2583
tp2584
Rp2585
ag2
(g6
S'\x84\xc7\xc4:'
p2586
tp2587
Rp2588
ag2
(g6
S'\xb0M8;'
p2589
tp2590
Rp2591
ag2
(g6
S'\xb3\xb6T;'
p2592
tp2593
Rp2594
ag2
(g6
S'fu`;'
p2595
tp2596
Rp2597
ag2
(g6
S'j~};'
p2598
tp2599
Rp2600
ag2
(g6
S'\xfd0I;'
p2601
tp2602
Rp2603
ag2
(g6
S'\xe3~w;'
p2604
tp2605
Rp2606
ag2
(g6
S'\x14Ux:'
p2607
tp2608
Rp2609
ag2
(g6
S'\xacy\x08<'
p2610
tp2611
Rp2612
ag2
(g6
S"\xe5\x08';"
p2613
tp2614
Rp2615
ag2
(g6
S'0\xe3\xfc:'
p2616
tp2617
Rp2618
ag2
(g6
S'D\xd6\xfc;'
p2619
tp2620
Rp2621
ag2
(g6
S'f\xb9K<'
p2622
tp2623
Rp2624
ag2
(g6
S'\xf2\xeeG<'
p2625
tp2626
Rp2627
ag2
(g6
S'v\x94\x04;'
p2628
tp2629
Rp2630
ag2
(g6
S'\x84\xd3\xc5;'
p2631
tp2632
Rp2633
ag2
(g6
S'^\xcf\xab:'
p2634
tp2635
Rp2636
ag2
(g6
S'\x13\x82G;'
p2637
tp2638
Rp2639
ag2
(g6
S'\xd7)0;'
p2640
tp2641
Rp2642
ag2
(g6
S'&+\x95;'
p2643
tp2644
Rp2645
ag2
(g6
S'\x03\xfc7;'
p2646
tp2647
Rp2648
ag2
(g6
S'cR\x0f;'
p2649
tp2650
Rp2651
ag2
(g6
S'`\x1ex;'
p2652
tp2653
Rp2654
ag2
(g6
S'\xdeQ\xf0:'
p2655
tp2656
Rp2657
ag2
(g6
S'\xd7(\x8d:'
p2658
tp2659
Rp2660
ag2
(g6
S'\x1a5U;'
p2661
tp2662
Rp2663
ag2
(g6
S'\x1a^X;'
p2664
tp2665
Rp2666
ag2
(g6
S'\\\xb3\x99;'
p2667
tp2668
Rp2669
ag2
(g6
S'\x9f\xdf\xe0:'
p2670
tp2671
Rp2672
ag2
(g6
S'\xed\xa6\\;'
p2673
tp2674
Rp2675
ag2
(g6
S'\xa0\x17\xeb:'
p2676
tp2677
Rp2678
ag2
(g6
S'1c\xbf:'
p2679
tp2680
Rp2681
ag2
(g6
S'\xd9\xee\x9e:'
p2682
tp2683
Rp2684
ag2
(g6
S'\xb2\x92\x90:'
p2685
tp2686
Rp2687
ag2
(g6
S'V\xc6\x81;'
p2688
tp2689
Rp2690
ag2
(g6
S'I\xbe?;'
p2691
tp2692
Rp2693
ag2
(g6
S'\x9a8x;'
p2694
tp2695
Rp2696
ag2
(g6
S'1P\x03<'
p2697
tp2698
Rp2699
ag2
(g6
S'\x94c1<'
p2700
tp2701
Rp2702
ag2
(g6
S'.>\xbb9'
p2703
tp2704
Rp2705
ag2
(g6
S'\xce\xaa\xd9:'
p2706
tp2707
Rp2708
ag2
(g6
S'\xdd}8;'
p2709
tp2710
Rp2711
ag2
(g6
S'\xd03\xad;'
p2712
tp2713
Rp2714
ag2
(g6
S'\xd9F`<'
p2715
tp2716
Rp2717
ag2
(g6
S'\xe8{\xa2:'
p2718
tp2719
Rp2720
ag2
(g6
S'\x8f\x96A<'
p2721
tp2722
Rp2723
ag2
(g6
S'&#\xf5:'
p2724
tp2725
Rp2726
ag2
(g6
S'\xc5EV:'
p2727
tp2728
Rp2729
ag2
(g6
S'HE\x82;'
p2730
tp2731
Rp2732
ag2
(g6
S'<t>;'
p2733
tp2734
Rp2735
ag2
(g6
S'\x03}I;'
p2736
tp2737
Rp2738
ag2
(g6
S'~9#;'
p2739
tp2740
Rp2741
ag2
(g6
S't\xffN;'
p2742
tp2743
Rp2744
ag2
(g6
S'\x9dDm;'
p2745
tp2746
Rp2747
ag2
(g6
S'\xe5\xf9Y:'
p2748
tp2749
Rp2750
ag2
(g6
S'1`\x03;'
p2751
tp2752
Rp2753
ag2
(g6
S'\x83\xfa\x84;'
p2754
tp2755
Rp2756
ag2
(g6
S'rml;'
p2757
tp2758
Rp2759
ag2
(g6
S'\xb3\x7f^;'
p2760
tp2761
Rp2762
ag2
(g6
S'A;\x8f;'
p2763
tp2764
Rp2765
ag2
(g6
S'<\x98\x1c;'
p2766
tp2767
Rp2768
ag2
(g6
S'\x1dQW:'
p2769
tp2770
Rp2771
ag2
(g6
S'\x96\xbc<:'
p2772
tp2773
Rp2774
ag2
(g6
S'^\xb1\x988'
p2775
tp2776
Rp2777
ag2
(g6
S'\xed\x07\x99;'
p2778
tp2779
Rp2780
ag2
(g6
S'\xaf\xeeO;'
p2781
tp2782
Rp2783
ag2
(g6
S'\x98\x15\xa8;'
p2784
tp2785
Rp2786
ag2
(g6
S'\xf8i\x91;'
p2787
tp2788
Rp2789
ag2
(g6
S'\xf2\xea\xa1;'
p2790
tp2791
Rp2792
ag2
(g6
S'ad\xa2;'
p2793
tp2794
Rp2795
ag2
(g6
S'\xa7\x86+;'
p2796
tp2797
Rp2798
ag2
(g6
S'\xcb\xcdR;'
p2799
tp2800
Rp2801
ag2
(g6
S'\x16\xf2o;'
p2802
tp2803
Rp2804
ag2
(g6
S'O\x83\xb7;'
p2805
tp2806
Rp2807
ag2
(g6
S'ZY\xe89'
p2808
tp2809
Rp2810
ag2
(g6
S'\xbb\xde%;'
p2811
tp2812
Rp2813
ag2
(g6
S'\xef\xca\xb6:'
p2814
tp2815
Rp2816
ag2
(g6
S'\xf7/\x96;'
p2817
tp2818
Rp2819
ag2
(g6
S'K`\xf5;'
p2820
tp2821
Rp2822
ag2
(g6
S'&xB;'
p2823
tp2824
Rp2825
ag2
(g6
S'>\x06\xb2;'
p2826
tp2827
Rp2828
ag2
(g6
S'\x8a\xa3\xbc:'
p2829
tp2830
Rp2831
ag2
(g6
S'?\xb0X:'
p2832
tp2833
Rp2834
ag2
(g6
S'\x9f\xf2\x02;'
p2835
tp2836
Rp2837
ag2
(g6
S'K\x87t;'
p2838
tp2839
Rp2840
ag2
(g6
S'\xd6\xb2H9'
p2841
tp2842
Rp2843
ag2
(g6
S's\t\x10<'
p2844
tp2845
Rp2846
ag2
(g6
S'\x96\xf3/<'
p2847
tp2848
Rp2849
ag2
(g6
S'P\x07\x0c;'
p2850
tp2851
Rp2852
ag2
(g6
S'\xb3\xcdU;'
p2853
tp2854
Rp2855
ag2
(g6
S'<\xce\xcb;'
p2856
tp2857
Rp2858
ag2
(g6
S'\x95~ ;'
p2859
tp2860
Rp2861
ag2
(g6
S'\xa0[\x92;'
p2862
tp2863
Rp2864
ag2
(g6
S',>\x14;'
p2865
tp2866
Rp2867
ag2
(g6
S'\x84\xfa\xae;'
p2868
tp2869
Rp2870
ag2
(g6
S'"w\x82;'
p2871
tp2872
Rp2873
ag2
(g6
S'\xce\xc6\x87;'
p2874
tp2875
Rp2876
ag2
(g6
S':\x19\r<'
p2877
tp2878
Rp2879
ag2
(g6
S'\n\xbd\x08<'
p2880
tp2881
Rp2882
ag2
(g6
S'y\x99\x01;'
p2883
tp2884
Rp2885
ag2
(g6
S'\xac\xb0\x96:'
p2886
tp2887
Rp2888
ag2
(g6
S'\xf7\xd2\xe1:'
p2889
tp2890
Rp2891
ag2
(g6
S'\xef\x11\x06;'
p2892
tp2893
Rp2894
ag2
(g6
S',\x07\x82;'
p2895
tp2896
Rp2897
ag2
(g6
S'&\xb1\xda9'
p2898
tp2899
Rp2900
ag2
(g6
S'\xd7%\x9c;'
p2901
tp2902
Rp2903
ag2
(g6
S'}\x95D;'
p2904
tp2905
Rp2906
ag2
(g6
S'\xe1\xd7\x1d;'
p2907
tp2908
Rp2909
ag2
(g6
S'\xe9\xfe.;'
p2910
tp2911
Rp2912
ag2
(g6
S'\xb1\xdf!:'
p2913
tp2914
Rp2915
ag2
(g6
S'\xff\xa9F;'
p2916
tp2917
Rp2918
ag2
(g6
S'\xc4\x95o;'
p2919
tp2920
Rp2921
ag2
(g6
S'\xe5\x08\r;'
p2922
tp2923
Rp2924
ag2
(g6
S't\xf8\xda;'
p2925
tp2926
Rp2927
ag2
(g6
S'$\x9d\xaa<'
p2928
tp2929
Rp2930
ag2
(g6
S'P\x8fN;'
p2931
tp2932
Rp2933
ag2
(g6
S'\xeeX69'
p2934
tp2935
Rp2936
ag2
(g6
S'\x9e\xdb\x1a<'
p2937
tp2938
Rp2939
ag2
(g6
S'(=\xda:'
p2940
tp2941
Rp2942
ag2
(g6
S'\x8eHC<'
p2943
tp2944
Rp2945
ag2
(g6
S'\xd2\xa0\\;'
p2946
tp2947
Rp2948
ag2
(g6
S'&8\x0b<'
p2949
tp2950
Rp2951
ag2
(g6
S'\x94\x9bo;'
p2952
tp2953
Rp2954
ag2
(g6
S'\xf1(\x88;'
p2955
tp2956
Rp2957
ag2
(g6
S'rOP;'
p2958
tp2959
Rp2960
ag2
(g6
S'\x9d\xa2]<'
p2961
tp2962
Rp2963
ag2
(g6
S'\x93"(;'
p2964
tp2965
Rp2966
ag2
(g6
S'\xf0U\xb3:'
p2967
tp2968
Rp2969
ag2
(g6
S'\xc8\xae\n;'
p2970
tp2971
Rp2972
ag2
(g6
S'\x1f1\xdc:'
p2973
tp2974
Rp2975
ag2
(g6
S'oQ\xbe;'
p2976
tp2977
Rp2978
ag2
(g6
S'\xa9\x03\x08<'
p2979
tp2980
Rp2981
ag2
(g6
S'\n\xc7\x93;'
p2982
tp2983
Rp2984
ag2
(g6
S'Dm\x03<'
p2985
tp2986
Rp2987
ag2
(g6
S'\xcaa-;'
p2988
tp2989
Rp2990
ag2
(g6
S'\x0f\x17\x18:'
p2991
tp2992
Rp2993
ag2
(g6
S'-eO;'
p2994
tp2995
Rp2996
ag2
(g6
S'\x0c\xae\xfe;'
p2997
tp2998
Rp2999
ag2
(g6
S'5\x10t;'
p3000
tp3001
Rp3002
ag2
(g6
S'.\xacQ;'
p3003
tp3004
Rp3005
ag2
(g6
S'\xa9\xce+;'
p3006
tp3007
Rp3008
ag2
(g6
S'\xb5B\xd3;'
p3009
tp3010
Rp3011
ag2
(g6
S'\x93\x1e\xa3;'
p3012
tp3013
Rp3014
ag2
(g6
S'\x1b\xd7\x0c;'
p3015
tp3016
Rp3017
ag2
(g6
S'8p\x0b;'
p3018
tp3019
Rp3020
ag2
(g6
S'\x9d\xf9\xe6;'
p3021
tp3022
Rp3023
ag2
(g6
S'\xa0\x83\x13<'
p3024
tp3025
Rp3026
ag2
(g6
S'\n9<;'
p3027
tp3028
Rp3029
ag2
(g6
S'V\x03\xb9;'
p3030
tp3031
Rp3032
ag2
(g6
S'\x8e\xf9*;'
p3033
tp3034
Rp3035
ag2
(g6
S'\x98\t\xf8;'
p3036
tp3037
Rp3038
ag2
(g6
S'\xd2u%;'
p3039
tp3040
Rp3041
ag2
(g6
S'\xff\xdd\x10;'
p3042
tp3043
Rp3044
ag2
(g6
S'f\x8e(;'
p3045
tp3046
Rp3047
ag2
(g6
S'\x03\x88\xf5;'
p3048
tp3049
Rp3050
ag2
(g6
S'\xf6\x91\xff;'
p3051
tp3052
Rp3053
ag2
(g6
S'K\x84\xdf;'
p3054
tp3055
Rp3056
ag2
(g6
S'\x8f\x03#;'
p3057
tp3058
Rp3059
ag2
(g6
S'\xda\x0e\x80;'
p3060
tp3061
Rp3062
ag2
(g6
S'a\xc2B9'
p3063
tp3064
Rp3065
ag2
(g6
S'N\x02\xca;'
p3066
tp3067
Rp3068
ag2
(g6
S':Q\x1a:'
p3069
tp3070
Rp3071
ag2
(g6
S'\xb1Y\xa0:'
p3072
tp3073
Rp3074
ag2
(g6
S'-\x0f\x04;'
p3075
tp3076
Rp3077
ag2
(g6
S'\xec2E;'
p3078
tp3079
Rp3080
aa(lp3081
g2
(g6
S'\xe6f\xcf;'
p3082
tp3083
Rp3084
ag2
(g6
S'h*\xcc;'
p3085
tp3086
Rp3087
ag2
(g6
S'\xa4\xb4+<'
p3088
tp3089
Rp3090
ag2
(g6
S'\xfc9P;'
p3091
tp3092
Rp3093
ag2
(g6
S'<\xe0\xd7;'
p3094
tp3095
Rp3096
ag2
(g6
S'\x1f\xbf\xae:'
p3097
tp3098
Rp3099
ag2
(g6
S'\xfc\x1c=9'
p3100
tp3101
Rp3102
ag2
(g6
S'T=\xfb;'
p3103
tp3104
Rp3105
ag2
(g6
S'*\x93\xb1:'
p3106
tp3107
Rp3108
ag2
(g6
S'\xea\xe5\xcc;'
p3109
tp3110
Rp3111
ag2
(g6
S'\xf8xL;'
p3112
tp3113
Rp3114
ag2
(g6
S'\xb7\x8a\x06<'
p3115
tp3116
Rp3117
ag2
(g6
S'\xb8+T:'
p3118
tp3119
Rp3120
ag2
(g6
S'\xd4z\x87;'
p3121
tp3122
Rp3123
ag2
(g6
S'\xafW\x86;'
p3124
tp3125
Rp3126
ag2
(g6
S'f5l;'
p3127
tp3128
Rp3129
ag2
(g6
S'r\xcf\xb8;'
p3130
tp3131
Rp3132
ag2
(g6
S'\x19\xfa\x8b:'
p3133
tp3134
Rp3135
ag2
(g6
S'\xbd\x88\xaa;'
p3136
tp3137
Rp3138
ag2
(g6
S']\x813;'
p3139
tp3140
Rp3141
ag2
(g6
S'\x85\xac\xda;'
p3142
tp3143
Rp3144
ag2
(g6
S'\xdeF\xc1;'
p3145
tp3146
Rp3147
ag2
(g6
S'\xb7\xbc,;'
p3148
tp3149
Rp3150
ag2
(g6
S'\xe3\xc5@;'
p3151
tp3152
Rp3153
ag2
(g6
S'\xbaw\xb6;'
p3154
tp3155
Rp3156
ag2
(g6
S'\xe0\xcd0<'
p3157
tp3158
Rp3159
ag2
(g6
S'Hp\x0f;'
p3160
tp3161
Rp3162
ag2
(g6
S'\x9f!Q<'
p3163
tp3164
Rp3165
ag2
(g6
S'\xb5\xa41;'
p3166
tp3167
Rp3168
ag2
(g6
S'$\xbf\xb5:'
p3169
tp3170
Rp3171
ag2
(g6
S'b|\xbe;'
p3172
tp3173
Rp3174
ag2
(g6
S'3F\xe1:'
p3175
tp3176
Rp3177
ag2
(g6
S'JF\x06<'
p3178
tp3179
Rp3180
ag2
(g6
S'\x96FT;'
p3181
tp3182
Rp3183
ag2
(g6
S'~xm;'
p3184
tp3185
Rp3186
ag2
(g6
S'\x90V-<'
p3187
tp3188
Rp3189
ag2
(g6
S'\xf4~g:'
p3190
tp3191
Rp3192
ag2
(g6
S'\x84\xb8\x13='
p3193
tp3194
Rp3195
ag2
(g6
S'\x9aB\x949'
p3196
tp3197
Rp3198
ag2
(g6
S'\xf8\x9a*:'
p3199
tp3200
Rp3201
ag2
(g6
S'\xd4\x0e];'
p3202
tp3203
Rp3204
ag2
(g6
S'\x0c\xcd2;'
p3205
tp3206
Rp3207
ag2
(g6
S'\xc6\x83~;'
p3208
tp3209
Rp3210
ag2
(g6
S'P\xfa\xcd;'
p3211
tp3212
Rp3213
ag2
(g6
S'A\xe3o;'
p3214
tp3215
Rp3216
ag2
(g6
S'\xf7\xfd\xc4<'
p3217
tp3218
Rp3219
ag2
(g6
S'fk\xe0;'
p3220
tp3221
Rp3222
ag2
(g6
S'\x82ob;'
p3223
tp3224
Rp3225
ag2
(g6
S'\x14.D;'
p3226
tp3227
Rp3228
ag2
(g6
S'\xf1c\x8c;'
p3229
tp3230
Rp3231
ag2
(g6
S'\xeb\x802;'
p3232
tp3233
Rp3234
ag2
(g6
S'\xd7WQ:'
p3235
tp3236
Rp3237
ag2
(g6
S'\x10b;;'
p3238
tp3239
Rp3240
ag2
(g6
S'\xaf\x81\x8e<'
p3241
tp3242
Rp3243
ag2
(g6
S':\x1e/<'
p3244
tp3245
Rp3246
ag2
(g6
S'g\xa1\x92;'
p3247
tp3248
Rp3249
ag2
(g6
S'\xbfA\x8d<'
p3250
tp3251
Rp3252
ag2
(g6
S'\xa0V\x1b<'
p3253
tp3254
Rp3255
ag2
(g6
S'e\xcbT;'
p3256
tp3257
Rp3258
ag2
(g6
S'\x82 \x85;'
p3259
tp3260
Rp3261
ag2
(g6
S'q\xc3b;'
p3262
tp3263
Rp3264
ag2
(g6
S'`\x05\x11<'
p3265
tp3266
Rp3267
ag2
(g6
S'\x0f\xb5;;'
p3268
tp3269
Rp3270
ag2
(g6
S'\xe1\xe4\xeb:'
p3271
tp3272
Rp3273
ag2
(g6
S'\tt\xc5;'
p3274
tp3275
Rp3276
ag2
(g6
S'j2\xb3;'
p3277
tp3278
Rp3279
ag2
(g6
S'5\x93\xcd;'
p3280
tp3281
Rp3282
ag2
(g6
S'\xe6\xb3\x84;'
p3283
tp3284
Rp3285
ag2
(g6
S'\xa3\xbd\x8f;'
p3286
tp3287
Rp3288
ag2
(g6
S'\xe6\xfd\xc2;'
p3289
tp3290
Rp3291
ag2
(g6
S'>\x03\x19<'
p3292
tp3293
Rp3294
ag2
(g6
S'\xb1J\xcb;'
p3295
tp3296
Rp3297
ag2
(g6
S'<\x9d\x81;'
p3298
tp3299
Rp3300
ag2
(g6
S'Tx\xf5;'
p3301
tp3302
Rp3303
ag2
(g6
S'\xaf\xdb\xa2;'
p3304
tp3305
Rp3306
ag2
(g6
S'\x87\xb4\xf7:'
p3307
tp3308
Rp3309
ag2
(g6
S'\xa6\xedJ;'
p3310
tp3311
Rp3312
ag2
(g6
S'\x0f\xcd\x82;'
p3313
tp3314
Rp3315
ag2
(g6
S"'x\x10;"
p3316
tp3317
Rp3318
ag2
(g6
S'\xf1\xf0\xa09'
p3319
tp3320
Rp3321
ag2
(g6
S'\xa7;\x80;'
p3322
tp3323
Rp3324
ag2
(g6
S'\xda\xb8\xe7;'
p3325
tp3326
Rp3327
ag2
(g6
S'3\xe3X<'
p3328
tp3329
Rp3330
ag2
(g6
S'\xa1\xfb?;'
p3331
tp3332
Rp3333
ag2
(g6
S'\xdd\x9e);'
p3334
tp3335
Rp3336
ag2
(g6
S'\xac\xd5\xb2;'
p3337
tp3338
Rp3339
ag2
(g6
S'\x927:;'
p3340
tp3341
Rp3342
ag2
(g6
S'5j\x7f<'
p3343
tp3344
Rp3345
ag2
(g6
S'\xe8\xe7\x11<'
p3346
tp3347
Rp3348
ag2
(g6
S'hf\xaa;'
p3349
tp3350
Rp3351
ag2
(g6
S'Y\xed\x03<'
p3352
tp3353
Rp3354
ag2
(g6
S'\xf2\xcc\xe1:'
p3355
tp3356
Rp3357
ag2
(g6
S'\x82_\x9d;'
p3358
tp3359
Rp3360
ag2
(g6
S'U~H:'
p3361
tp3362
Rp3363
ag2
(g6
S'P\xddZ:'
p3364
tp3365
Rp3366
ag2
(g6
S'}\x99\x829'
p3367
tp3368
Rp3369
ag2
(g6
S'\xd9\x1b\xb3;'
p3370
tp3371
Rp3372
ag2
(g6
S'b\x84\x80:'
p3373
tp3374
Rp3375
ag2
(g6
S'\xbf\xc4:;'
p3376
tp3377
Rp3378
ag2
(g6
S'\x83G\xad;'
p3379
tp3380
Rp3381
ag2
(g6
S'\x14o\xd7;'
p3382
tp3383
Rp3384
ag2
(g6
S'\xef\xa1\xe1;'
p3385
tp3386
Rp3387
ag2
(g6
S'.a\xb58'
p3388
tp3389
Rp3390
ag2
(g6
S'\x01\xf7\x86<'
p3391
tp3392
Rp3393
ag2
(g6
S'o\xed)<'
p3394
tp3395
Rp3396
ag2
(g6
S'\x93\x1d\xbe;'
p3397
tp3398
Rp3399
ag2
(g6
S'\xda\x86\xa9;'
p3400
tp3401
Rp3402
ag2
(g6
S'a\xc9 <'
p3403
tp3404
Rp3405
ag2
(g6
S'\xc3\xb58;'
p3406
tp3407
Rp3408
ag2
(g6
S'\x08,Q;'
p3409
tp3410
Rp3411
ag2
(g6
S'P\xd6J<'
p3412
tp3413
Rp3414
ag2
(g6
S'hv\xa38'
p3415
tp3416
Rp3417
ag2
(g6
S'jB\x01;'
p3418
tp3419
Rp3420
ag2
(g6
S'\xd3,\xcb;'
p3421
tp3422
Rp3423
ag2
(g6
S'\xd51\x9b:'
p3424
tp3425
Rp3426
ag2
(g6
S'\x1cs\xaa;'
p3427
tp3428
Rp3429
ag2
(g6
S'q\xd8\xd3:'
p3430
tp3431
Rp3432
ag2
(g6
S'\xc7\x92K;'
p3433
tp3434
Rp3435
ag2
(g6
S'D\xf1\xd6:'
p3436
tp3437
Rp3438
ag2
(g6
S'\x14\x9a\x97;'
p3439
tp3440
Rp3441
ag2
(g6
S'\xcb\x11L;'
p3442
tp3443
Rp3444
ag2
(g6
S'\xbf\x00T<'
p3445
tp3446
Rp3447
ag2
(g6
S'J\xc2\x0e;'
p3448
tp3449
Rp3450
ag2
(g6
S'\x8e\x03\xa6:'
p3451
tp3452
Rp3453
ag2
(g6
S'z\x99\xd4;'
p3454
tp3455
Rp3456
ag2
(g6
S"'\xf7s;"
p3457
tp3458
Rp3459
ag2
(g6
S'\xab\xd3\x0c;'
p3460
tp3461
Rp3462
ag2
(g6
S'\xf9\n\x9b:'
p3463
tp3464
Rp3465
ag2
(g6
S'Z`\xa48'
p3466
tp3467
Rp3468
ag2
(g6
S'\xd5\xa4);'
p3469
tp3470
Rp3471
ag2
(g6
S'\xe0\xc2\x89:'
p3472
tp3473
Rp3474
ag2
(g6
S'\xd0\xc3Q;'
p3475
tp3476
Rp3477
ag2
(g6
S'\x11~\xe1:'
p3478
tp3479
Rp3480
ag2
(g6
S'?\xa6`;'
p3481
tp3482
Rp3483
ag2
(g6
S'_T\xab;'
p3484
tp3485
Rp3486
ag2
(g6
S'\xa0NG;'
p3487
tp3488
Rp3489
ag2
(g6
S'\xe5\xc9N;'
p3490
tp3491
Rp3492
ag2
(g6
S'\xe0\xd4\x8b;'
p3493
tp3494
Rp3495
ag2
(g6
S'\x98\xcd[;'
p3496
tp3497
Rp3498
ag2
(g6
S'\x9f\xf5\xf2;'
p3499
tp3500
Rp3501
ag2
(g6
S"\x84\r';"
p3502
tp3503
Rp3504
ag2
(g6
S'\xcb\xba\n;'
p3505
tp3506
Rp3507
ag2
(g6
S'\xfbX\xce:'
p3508
tp3509
Rp3510
ag2
(g6
S'\x1f\xc7\\;'
p3511
tp3512
Rp3513
ag2
(g6
S'\xc8\xfd\xa3;'
p3514
tp3515
Rp3516
ag2
(g6
S'\x9d\xff;;'
p3517
tp3518
Rp3519
ag2
(g6
S'\xc4\xdfN;'
p3520
tp3521
Rp3522
ag2
(g6
S'\xb1]r;'
p3523
tp3524
Rp3525
ag2
(g6
S'w\xd5F;'
p3526
tp3527
Rp3528
ag2
(g6
S'\x83\xfc^;'
p3529
tp3530
Rp3531
ag2
(g6
S'=\xe5a<'
p3532
tp3533
Rp3534
ag2
(g6
S'Ts\xaa;'
p3535
tp3536
Rp3537
ag2
(g6
S'\x93I\x17;'
p3538
tp3539
Rp3540
ag2
(g6
S'\xec\xbc\xd4:'
p3541
tp3542
Rp3543
ag2
(g6
S'&\\\xff:'
p3544
tp3545
Rp3546
ag2
(g6
S'6\x96\xa5;'
p3547
tp3548
Rp3549
ag2
(g6
S'\xc8\xdf\xe2;'
p3550
tp3551
Rp3552
ag2
(g6
S"'\xb1\x0f;"
p3553
tp3554
Rp3555
ag2
(g6
S'\x80~\xbe:'
p3556
tp3557
Rp3558
ag2
(g6
S'\n\xa8\xbb:'
p3559
tp3560
Rp3561
ag2
(g6
S'\x1f\xe3j;'
p3562
tp3563
Rp3564
ag2
(g6
S'_\tJ<'
p3565
tp3566
Rp3567
ag2
(g6
S'\xcf\xd1\x03;'
p3568
tp3569
Rp3570
ag2
(g6
S'\xf6m\x8c:'
p3571
tp3572
Rp3573
ag2
(g6
S'\xa7\xb7#<'
p3574
tp3575
Rp3576
ag2
(g6
S'\xab_3;'
p3577
tp3578
Rp3579
ag2
(g6
S'<\x8c\xe5;'
p3580
tp3581
Rp3582
ag2
(g6
S'\x05\x8a\x80;'
p3583
tp3584
Rp3585
ag2
(g6
S'\xa0R\x93;'
p3586
tp3587
Rp3588
ag2
(g6
S'=]r:'
p3589
tp3590
Rp3591
ag2
(g6
S"'\xcd\x81:"
p3592
tp3593
Rp3594
ag2
(g6
S'r\x1a\x92;'
p3595
tp3596
Rp3597
ag2
(g6
S"\xd5j';"
p3598
tp3599
Rp3600
ag2
(g6
S'\x11\xc9\x1a<'
p3601
tp3602
Rp3603
ag2
(g6
S')A\xda;'
p3604
tp3605
Rp3606
ag2
(g6
S'JbL<'
p3607
tp3608
Rp3609
ag2
(g6
S'\xad&)<'
p3610
tp3611
Rp3612
ag2
(g6
S'\xf7\xa8R;'
p3613
tp3614
Rp3615
ag2
(g6
S'C^&;'
p3616
tp3617
Rp3618
ag2
(g6
S'^e\xf3:'
p3619
tp3620
Rp3621
ag2
(g6
S'q\x00\\;'
p3622
tp3623
Rp3624
ag2
(g6
S'\x0f\xbb\xa4:'
p3625
tp3626
Rp3627
ag2
(g6
S'\xf3\xf5\xcf:'
p3628
tp3629
Rp3630
ag2
(g6
S'\xe1\xde\x96:'
p3631
tp3632
Rp3633
ag2
(g6
S'\x1f\xa8\xe1;'
p3634
tp3635
Rp3636
ag2
(g6
S'\xb8\xbd\xdc9'
p3637
tp3638
Rp3639
ag2
(g6
S'U\xdb}:'
p3640
tp3641
Rp3642
ag2
(g6
S'\xc8\xf3R:'
p3643
tp3644
Rp3645
ag2
(g6
S'\x13\xf9\x99;'
p3646
tp3647
Rp3648
ag2
(g6
S'qG\xe1:'
p3649
tp3650
Rp3651
ag2
(g6
S'K\x1dw;'
p3652
tp3653
Rp3654
ag2
(g6
S'\xe7+8<'
p3655
tp3656
Rp3657
ag2
(g6
S'Tr&;'
p3658
tp3659
Rp3660
ag2
(g6
S'~{\x96:'
p3661
tp3662
Rp3663
ag2
(g6
S'M\x10\xd7;'
p3664
tp3665
Rp3666
ag2
(g6
S'\xdc\xe9\xa2;'
p3667
tp3668
Rp3669
ag2
(g6
S'\xb5}*;'
p3670
tp3671
Rp3672
ag2
(g6
S'\xd7\xc8\xc1:'
p3673
tp3674
Rp3675
ag2
(g6
S'&(\xe89'
p3676
tp3677
Rp3678
ag2
(g6
S'\xf1\xf0\xaa;'
p3679
tp3680
Rp3681
ag2
(g6
S'\xe4%\xcf<'
p3682
tp3683
Rp3684
ag2
(g6
S'\x91\xdc\x81;'
p3685
tp3686
Rp3687
ag2
(g6
S'gB\x8f:'
p3688
tp3689
Rp3690
ag2
(g6
S'qM\xe3;'
p3691
tp3692
Rp3693
ag2
(g6
S'\xef\\+;'
p3694
tp3695
Rp3696
ag2
(g6
S'Ys\x9b;'
p3697
tp3698
Rp3699
ag2
(g6
S'\x07]\xa5;'
p3700
tp3701
Rp3702
ag2
(g6
S'\xd5\xfb\xa2;'
p3703
tp3704
Rp3705
ag2
(g6
S'\tu\x13;'
p3706
tp3707
Rp3708
ag2
(g6
S'\xaa\xf9\x94:'
p3709
tp3710
Rp3711
ag2
(g6
S'\x91\x9b\x87;'
p3712
tp3713
Rp3714
ag2
(g6
S'\xdeQE;'
p3715
tp3716
Rp3717
ag2
(g6
S'\xd2\x01\x9b;'
p3718
tp3719
Rp3720
ag2
(g6
S'\x85U\x80;'
p3721
tp3722
Rp3723
ag2
(g6
S'\x16\x08G:'
p3724
tp3725
Rp3726
ag2
(g6
S' \x98\x1c;'
p3727
tp3728
Rp3729
ag2
(g6
S'\xa9\x04\xdd;'
p3730
tp3731
Rp3732
ag2
(g6
S'\xed\xc4\x08<'
p3733
tp3734
Rp3735
ag2
(g6
S'\x8d\x9e\x0f;'
p3736
tp3737
Rp3738
ag2
(g6
S'\ng\xf7:'
p3739
tp3740
Rp3741
ag2
(g6
S'R\xde\xf6:'
p3742
tp3743
Rp3744
ag2
(g6
S'TIP<'
p3745
tp3746
Rp3747
ag2
(g6
S'\x12L\r<'
p3748
tp3749
Rp3750
ag2
(g6
S'^\x8b\xc3;'
p3751
tp3752
Rp3753
ag2
(g6
S'{\x97\xf9;'
p3754
tp3755
Rp3756
ag2
(g6
S'\xe3T\xbd;'
p3757
tp3758
Rp3759
ag2
(g6
S'\x07\xb5h<'
p3760
tp3761
Rp3762
ag2
(g6
S'\xe2\x88\x8d;'
p3763
tp3764
Rp3765
ag2
(g6
S'Y\xef\x12;'
p3766
tp3767
Rp3768
ag2
(g6
S'\x0c\\\x19<'
p3769
tp3770
Rp3771
ag2
(g6
S'\xc7\xd5P;'
p3772
tp3773
Rp3774
ag2
(g6
S'\x8eF\x93<'
p3775
tp3776
Rp3777
ag2
(g6
S'\xee\x82\n;'
p3778
tp3779
Rp3780
ag2
(g6
S'#o\xb0;'
p3781
tp3782
Rp3783
ag2
(g6
S'\xb7"K;'
p3784
tp3785
Rp3786
ag2
(g6
S'\xfe\x85\xb0:'
p3787
tp3788
Rp3789
ag2
(g6
S'&\x0b\xa6;'
p3790
tp3791
Rp3792
ag2
(g6
S'&\xfe#;'
p3793
tp3794
Rp3795
ag2
(g6
S'r\xe2\x9a;'
p3796
tp3797
Rp3798
ag2
(g6
S'\xd53\x85;'
p3799
tp3800
Rp3801
ag2
(g6
S',\xe8&<'
p3802
tp3803
Rp3804
ag2
(g6
S'w\xb0\xdb;'
p3805
tp3806
Rp3807
ag2
(g6
S'\xb1U\x0e<'
p3808
tp3809
Rp3810
ag2
(g6
S'\x1a\x02\xcf;'
p3811
tp3812
Rp3813
ag2
(g6
S'3\x18\x08<'
p3814
tp3815
Rp3816
ag2
(g6
S'\x17\xc2<:'
p3817
tp3818
Rp3819
ag2
(g6
S'U\xf6\xe5;'
p3820
tp3821
Rp3822
ag2
(g6
S'\x15!\xb7;'
p3823
tp3824
Rp3825
ag2
(g6
S'\xb5\x01u;'
p3826
tp3827
Rp3828
ag2
(g6
S'[67<'
p3829
tp3830
Rp3831
ag2
(g6
S'\x9f\xc1\xf1;'
p3832
tp3833
Rp3834
ag2
(g6
S'Z\x10\x98;'
p3835
tp3836
Rp3837
ag2
(g6
S'0\x01\x04;'
p3838
tp3839
Rp3840
ag2
(g6
S'\x11\xb5\xdf:'
p3841
tp3842
Rp3843
ag2
(g6
S'\xf9\x7f\xef:'
p3844
tp3845
Rp3846
ag2
(g6
S'\xc4\xca9;'
p3847
tp3848
Rp3849
ag2
(g6
S'\x08\xb6"<'
p3850
tp3851
Rp3852
ag2
(g6
S'\xe3~\xb2:'
p3853
tp3854
Rp3855
ag2
(g6
S'\xcd\x88\\<'
p3856
tp3857
Rp3858
ag2
(g6
S'y~\x88;'
p3859
tp3860
Rp3861
ag2
(g6
S'\xe1\xd8\xfe;'
p3862
tp3863
Rp3864
ag2
(g6
S'cy\xf3;'
p3865
tp3866
Rp3867
ag2
(g6
S'\x94\xef\x0e<'
p3868
tp3869
Rp3870
ag2
(g6
S'G\xf0\x16;'
p3871
tp3872
Rp3873
ag2
(g6
S'\xae5,;'
p3874
tp3875
Rp3876
ag2
(g6
S');\xe1:'
p3877
tp3878
Rp3879
ag2
(g6
S'R9\xa3;'
p3880
tp3881
Rp3882
ag2
(g6
S'\x94\xb0v<'
p3883
tp3884
Rp3885
ag2
(g6
S'R\x80\x14;'
p3886
tp3887
Rp3888
ag2
(g6
S'\x0fx\xcd:'
p3889
tp3890
Rp3891
ag2
(g6
S'\xfd\xf4\xb5;'
p3892
tp3893
Rp3894
ag2
(g6
S'\xf9B\xf6:'
p3895
tp3896
Rp3897
ag2
(g6
S'O$\x05;'
p3898
tp3899
Rp3900
ag2
(g6
S'\x03n\x97;'
p3901
tp3902
Rp3903
ag2
(g6
S'<\xcc\x01<'
p3904
tp3905
Rp3906
ag2
(g6
S'\x9f\xefw;'
p3907
tp3908
Rp3909
ag2
(g6
S'\xb7L\xee;'
p3910
tp3911
Rp3912
ag2
(g6
S'P\x86\xa89'
p3913
tp3914
Rp3915
ag2
(g6
S'.E\xed;'
p3916
tp3917
Rp3918
ag2
(g6
S'\xd5\xb9\xfd:'
p3919
tp3920
Rp3921
ag2
(g6
S'\xa3\x07Q;'
p3922
tp3923
Rp3924
ag2
(g6
S'\xc4\x8c\r<'
p3925
tp3926
Rp3927
ag2
(g6
S'E\xab?:'
p3928
tp3929
Rp3930
ag2
(g6
S'\x84\n\xd4;'
p3931
tp3932
Rp3933
ag2
(g6
S'\xad\x8b\xc8:'
p3934
tp3935
Rp3936
ag2
(g6
S'O\x84\x85;'
p3937
tp3938
Rp3939
ag2
(g6
S'`\xb7\x8a;'
p3940
tp3941
Rp3942
ag2
(g6
S')B\xb3<'
p3943
tp3944
Rp3945
ag2
(g6
S'\x8f \x83:'
p3946
tp3947
Rp3948
ag2
(g6
S'\x96G\xf8:'
p3949
tp3950
Rp3951
ag2
(g6
S'_\x98\x89;'
p3952
tp3953
Rp3954
ag2
(g6
S'\x0b\xe3\x1d;'
p3955
tp3956
Rp3957
ag2
(g6
S'\xe5\r\xbf:'
p3958
tp3959
Rp3960
ag2
(g6
S'\xa2+\x98;'
p3961
tp3962
Rp3963
ag2
(g6
S'C\xb9\x1b<'
p3964
tp3965
Rp3966
ag2
(g6
S'&\x11\xe1;'
p3967
tp3968
Rp3969
ag2
(g6
S'\t=p;'
p3970
tp3971
Rp3972
ag2
(g6
S'\x87{\x0e<'
p3973
tp3974
Rp3975
ag2
(g6
S'\xda:e;'
p3976
tp3977
Rp3978
ag2
(g6
S'|\x02\x01;'
p3979
tp3980
Rp3981
ag2
(g6
S'\x91Q\xbb;'
p3982
tp3983
Rp3984
ag2
(g6
S'\xa0\xe4\x07<'
p3985
tp3986
Rp3987
ag2
(g6
S'\x00N\xa9;'
p3988
tp3989
Rp3990
ag2
(g6
S':\xe6\x18;'
p3991
tp3992
Rp3993
ag2
(g6
S'\xbf<\xd39'
p3994
tp3995
Rp3996
ag2
(g6
S'f\x18\xe1:'
p3997
tp3998
Rp3999
ag2
(g6
S"q'G;"
p4000
tp4001
Rp4002
ag2
(g6
S'\xb0k\xfb;'
p4003
tp4004
Rp4005
ag2
(g6
S'W+\x98;'
p4006
tp4007
Rp4008
ag2
(g6
S'{?K:'
p4009
tp4010
Rp4011
ag2
(g6
S'\xc6\xf4p;'
p4012
tp4013
Rp4014
ag2
(g6
S'\n\x82\xec;'
p4015
tp4016
Rp4017
ag2
(g6
S'\xf2Bf<'
p4018
tp4019
Rp4020
ag2
(g6
S'\xbaK\xa9;'
p4021
tp4022
Rp4023
ag2
(g6
S'f\xfe|;'
p4024
tp4025
Rp4026
ag2
(g6
S'\x8fz`;'
p4027
tp4028
Rp4029
ag2
(g6
S'j6\x04<'
p4030
tp4031
Rp4032
ag2
(g6
S'M\x0b\xe4;'
p4033
tp4034
Rp4035
ag2
(g6
S'\xda\xd2\x0e;'
p4036
tp4037
Rp4038
ag2
(g6
S'\xee\xbb\x8c8'
p4039
tp4040
Rp4041
ag2
(g6
S'\xc6\xb7\xdc:'
p4042
tp4043
Rp4044
ag2
(g6
S'\x84\x89\x95;'
p4045
tp4046
Rp4047
ag2
(g6
S'\xb3\xde{;'
p4048
tp4049
Rp4050
ag2
(g6
S'\xeb\\\x988'
p4051
tp4052
Rp4053
ag2
(g6
S'\xd6\xe6\x05;'
p4054
tp4055
Rp4056
ag2
(g6
S'\x1f\xd8\xe2;'
p4057
tp4058
Rp4059
ag2
(g6
S'\xb8\xa2e;'
p4060
tp4061
Rp4062
ag2
(g6
S'\x08\xb8\x03;'
p4063
tp4064
Rp4065
ag2
(g6
S'\xd9WP;'
p4066
tp4067
Rp4068
ag2
(g6
S'Rl\x94;'
p4069
tp4070
Rp4071
ag2
(g6
S"'n\x8b;"
p4072
tp4073
Rp4074
ag2
(g6
S'\xc3)7;'
p4075
tp4076
Rp4077
ag2
(g6
S'\xe5\x94\x0e<'
p4078
tp4079
Rp4080
ag2
(g6
S'\xb5\xed\xf2;'
p4081
tp4082
Rp4083
ag2
(g6
S'e9E;'
p4084
tp4085
Rp4086
ag2
(g6
S'#\xc9\xa6;'
p4087
tp4088
Rp4089
ag2
(g6
S'MB-<'
p4090
tp4091
Rp4092
ag2
(g6
S'\\t\xb5;'
p4093
tp4094
Rp4095
ag2
(g6
S'\xaer\xc7;'
p4096
tp4097
Rp4098
ag2
(g6
S'\x9eL\x00;'
p4099
tp4100
Rp4101
ag2
(g6
S'\xf4V\x15<'
p4102
tp4103
Rp4104
ag2
(g6
S'\xac\x91\x869'
p4105
tp4106
Rp4107
ag2
(g6
S'c@\xe9:'
p4108
tp4109
Rp4110
ag2
(g6
S'\xec\x1fy:'
p4111
tp4112
Rp4113
ag2
(g6
S'{\xf5i;'
p4114
tp4115
Rp4116
ag2
(g6
S'\xc6\x17\x1a;'
p4117
tp4118
Rp4119
ag2
(g6
S'WVT<'
p4120
tp4121
Rp4122
ag2
(g6
S'&\xd8\xee;'
p4123
tp4124
Rp4125
ag2
(g6
S'\x00M\x8f:'
p4126
tp4127
Rp4128
ag2
(g6
S'\x9dV\x12;'
p4129
tp4130
Rp4131
ag2
(g6
S'"\xce\xe8:'
p4132
tp4133
Rp4134
ag2
(g6
S'\x81\xcd\t;'
p4135
tp4136
Rp4137
ag2
(g6
S'\x96\xaa\xff:'
p4138
tp4139
Rp4140
ag2
(g6
S'RxM:'
p4141
tp4142
Rp4143
ag2
(g6
S'\xc7\xf7A;'
p4144
tp4145
Rp4146
ag2
(g6
S'\x03\x06\x0e;'
p4147
tp4148
Rp4149
ag2
(g6
S'\xabP\xd6:'
p4150
tp4151
Rp4152
ag2
(g6
S'\xeb\xde\xac;'
p4153
tp4154
Rp4155
ag2
(g6
S'\x82f4:'
p4156
tp4157
Rp4158
ag2
(g6
S'H\xa1u;'
p4159
tp4160
Rp4161
ag2
(g6
S'\xbf\xe6H;'
p4162
tp4163
Rp4164
ag2
(g6
S'a\x13\x07<'
p4165
tp4166
Rp4167
ag2
(g6
S'\x1cZ\xc0;'
p4168
tp4169
Rp4170
ag2
(g6
S'\x9d\x07\xfa:'
p4171
tp4172
Rp4173
ag2
(g6
S'\x89\xf5\x8b:'
p4174
tp4175
Rp4176
ag2
(g6
S'\xf2\xff\xc3;'
p4177
tp4178
Rp4179
ag2
(g6
S'\x9c =;'
p4180
tp4181
Rp4182
ag2
(g6
S'\x87\xf0\xb5:'
p4183
tp4184
Rp4185
ag2
(g6
S'R\x0c\x93:'
p4186
tp4187
Rp4188
ag2
(g6
S'\x14pK;'
p4189
tp4190
Rp4191
ag2
(g6
S'\x1f\x04d;'
p4192
tp4193
Rp4194
ag2
(g6
S'\xd0\xc4y<'
p4195
tp4196
Rp4197
ag2
(g6
S'w\xfe\xf1;'
p4198
tp4199
Rp4200
ag2
(g6
S'\xabLB;'
p4201
tp4202
Rp4203
ag2
(g6
S'\xbe\xfb\r;'
p4204
tp4205
Rp4206
ag2
(g6
S'\xedu\xc8;'
p4207
tp4208
Rp4209
ag2
(g6
S'\xfeJ\x00;'
p4210
tp4211
Rp4212
ag2
(g6
S'\x8f\xce4;'
p4213
tp4214
Rp4215
ag2
(g6
S'R\xefc:'
p4216
tp4217
Rp4218
ag2
(g6
S'\xb0\x07d;'
p4219
tp4220
Rp4221
ag2
(g6
S'\x96\xbb,;'
p4222
tp4223
Rp4224
ag2
(g6
S'\x0f\x9e~;'
p4225
tp4226
Rp4227
ag2
(g6
S'\x05\xf5\x00<'
p4228
tp4229
Rp4230
ag2
(g6
S')\x06\x83;'
p4231
tp4232
Rp4233
ag2
(g6
S'%\x7f\xac;'
p4234
tp4235
Rp4236
ag2
(g6
S'tp\xfb;'
p4237
tp4238
Rp4239
ag2
(g6
S'$\x9a\xfa:'
p4240
tp4241
Rp4242
ag2
(g6
S'^hC;'
p4243
tp4244
Rp4245
ag2
(g6
S'\x19e1<'
p4246
tp4247
Rp4248
ag2
(g6
S'\x93}\x1b;'
p4249
tp4250
Rp4251
ag2
(g6
S'\xbacs;'
p4252
tp4253
Rp4254
ag2
(g6
S'\xe8\x0bz<'
p4255
tp4256
Rp4257
ag2
(g6
S'6\xcbM;'
p4258
tp4259
Rp4260
ag2
(g6
S'C\x89\x1d:'
p4261
tp4262
Rp4263
ag2
(g6
S'&\x04t;'
p4264
tp4265
Rp4266
ag2
(g6
S'\xfeR\x92;'
p4267
tp4268
Rp4269
ag2
(g6
S'\xb1\xf4\xe4;'
p4270
tp4271
Rp4272
ag2
(g6
S'\x84tS;'
p4273
tp4274
Rp4275
ag2
(g6
S'\x0bU\xcf:'
p4276
tp4277
Rp4278
ag2
(g6
S's\x8d\x8a;'
p4279
tp4280
Rp4281
ag2
(g6
S'\xb8\xbf\xf69'
p4282
tp4283
Rp4284
ag2
(g6
S'\xb3\xe3\xa3;'
p4285
tp4286
Rp4287
ag2
(g6
S'\x13^\xe8:'
p4288
tp4289
Rp4290
ag2
(g6
S'\xbdtZ;'
p4291
tp4292
Rp4293
ag2
(g6
S'\xc3\xe2g:'
p4294
tp4295
Rp4296
ag2
(g6
S'T\x87K;'
p4297
tp4298
Rp4299
ag2
(g6
S'\xc1\xcbD;'
p4300
tp4301
Rp4302
ag2
(g6
S'\n2\x8d;'
p4303
tp4304
Rp4305
ag2
(g6
S'\xc4\xdf\xe6;'
p4306
tp4307
Rp4308
ag2
(g6
S'HBO<'
p4309
tp4310
Rp4311
ag2
(g6
S'\xb0*w;'
p4312
tp4313
Rp4314
ag2
(g6
S'7\x02\xf4;'
p4315
tp4316
Rp4317
ag2
(g6
S'j\xc9y;'
p4318
tp4319
Rp4320
ag2
(g6
S'\xcf\xf14;'
p4321
tp4322
Rp4323
ag2
(g6
S'\x0fq\x01;'
p4324
tp4325
Rp4326
ag2
(g6
S'l\xd6\x0e;'
p4327
tp4328
Rp4329
ag2
(g6
S'\xe5.H<'
p4330
tp4331
Rp4332
ag2
(g6
S'\xa1D\xc5:'
p4333
tp4334
Rp4335
ag2
(g6
S'X\x85@;'
p4336
tp4337
Rp4338
ag2
(g6
S'~\xfex;'
p4339
tp4340
Rp4341
ag2
(g6
S'\x9e\xbc\xc0:'
p4342
tp4343
Rp4344
ag2
(g6
S'\xec\x81\xb7;'
p4345
tp4346
Rp4347
ag2
(g6
S'\xbf\xde\xc5;'
p4348
tp4349
Rp4350
ag2
(g6
S'\xf6\xf8J;'
p4351
tp4352
Rp4353
ag2
(g6
S'B(\x9f;'
p4354
tp4355
Rp4356
ag2
(g6
S'\x0c\xd5.;'
p4357
tp4358
Rp4359
ag2
(g6
S'0\x13&<'
p4360
tp4361
Rp4362
ag2
(g6
S'\xaf|6;'
p4363
tp4364
Rp4365
ag2
(g6
S'\xce\x9e?<'
p4366
tp4367
Rp4368
ag2
(g6
S'\x85[\xef:'
p4369
tp4370
Rp4371
ag2
(g6
S'\xb3,E;'
p4372
tp4373
Rp4374
ag2
(g6
S'f\x01\xe0:'
p4375
tp4376
Rp4377
ag2
(g6
S'\x03\xf9-<'
p4378
tp4379
Rp4380
ag2
(g6
S'\x03\x8f\x8e;'
p4381
tp4382
Rp4383
ag2
(g6
S'\x0fT\xa6;'
p4384
tp4385
Rp4386
ag2
(g6
S'\x01\xf0\x00<'
p4387
tp4388
Rp4389
ag2
(g6
S'\x1b*\x16;'
p4390
tp4391
Rp4392
ag2
(g6
S'\xda\x8b\x0b;'
p4393
tp4394
Rp4395
ag2
(g6
S'Z\x06E;'
p4396
tp4397
Rp4398
ag2
(g6
S'\xbaS\x8b;'
p4399
tp4400
Rp4401
ag2
(g6
S'\x83\xb5\x98:'
p4402
tp4403
Rp4404
ag2
(g6
S'\xe3\x9f\x99;'
p4405
tp4406
Rp4407
ag2
(g6
S'\xef|A<'
p4408
tp4409
Rp4410
ag2
(g6
S'\x05\xdf\xc8;'
p4411
tp4412
Rp4413
ag2
(g6
S'K\x81\x06='
p4414
tp4415
Rp4416
ag2
(g6
S'\t\x19\x84:'
p4417
tp4418
Rp4419
ag2
(g6
S'\xa0\x05\xbd:'
p4420
tp4421
Rp4422
ag2
(g6
S'\xf1\x98e;'
p4423
tp4424
Rp4425
ag2
(g6
S'\x8f`\x9e;'
p4426
tp4427
Rp4428
ag2
(g6
S'\xa1\xe2G;'
p4429
tp4430
Rp4431
ag2
(g6
S'\xc1\xa0t;'
p4432
tp4433
Rp4434
ag2
(g6
S'\x86%-<'
p4435
tp4436
Rp4437
ag2
(g6
S'\xb5A};'
p4438
tp4439
Rp4440
ag2
(g6
S'\xacb2;'
p4441
tp4442
Rp4443
ag2
(g6
S'\x1dD<;'
p4444
tp4445
Rp4446
ag2
(g6
S'\xe8m\xec:'
p4447
tp4448
Rp4449
ag2
(g6
S'cA\xb6;'
p4450
tp4451
Rp4452
ag2
(g6
S'\x85L@;'
p4453
tp4454
Rp4455
ag2
(g6
S'\xdd\xf3\xa5;'
p4456
tp4457
Rp4458
ag2
(g6
S'z|J;'
p4459
tp4460
Rp4461
ag2
(g6
S'\x97;\xaa;'
p4462
tp4463
Rp4464
ag2
(g6
S'\xcd\xb4\x9b;'
p4465
tp4466
Rp4467
ag2
(g6
S'\xe4@><'
p4468
tp4469
Rp4470
ag2
(g6
S'\x8e\xda\xf0;'
p4471
tp4472
Rp4473
ag2
(g6
S'\x94\xea\t;'
p4474
tp4475
Rp4476
ag2
(g6
S'\xd7\x84\x83:'
p4477
tp4478
Rp4479
ag2
(g6
S'\xcci\n;'
p4480
tp4481
Rp4482
ag2
(g6
S'0\xfc\x9c:'
p4483
tp4484
Rp4485
ag2
(g6
S'De\xdd;'
p4486
tp4487
Rp4488
ag2
(g6
S'@\x07\xb6;'
p4489
tp4490
Rp4491
ag2
(g6
S'\xb0\xff\xbe;'
p4492
tp4493
Rp4494
ag2
(g6
S'\x93\xbbL;'
p4495
tp4496
Rp4497
ag2
(g6
S'j\xa3\xb2;'
p4498
tp4499
Rp4500
ag2
(g6
S'\x1af\xd7;'
p4501
tp4502
Rp4503
ag2
(g6
S'\x80\xd9\x85<'
p4504
tp4505
Rp4506
ag2
(g6
S'@\x85G;'
p4507
tp4508
Rp4509
ag2
(g6
S'6\xc2\x8a;'
p4510
tp4511
Rp4512
ag2
(g6
S'\xcc\xad\x8a9'
p4513
tp4514
Rp4515
ag2
(g6
S'\x1f\x179;'
p4516
tp4517
Rp4518
ag2
(g6
S'\x0c\xe4\x1c:'
p4519
tp4520
Rp4521
ag2
(g6
S'\xdb\x1b\xc6:'
p4522
tp4523
Rp4524
ag2
(g6
S'\x89\xbb\xc9;'
p4525
tp4526
Rp4527
ag2
(g6
S'\xb3i\x8a;'
p4528
tp4529
Rp4530
ag2
(g6
S'F\xf9\x08<'
p4531
tp4532
Rp4533
ag2
(g6
S'\xea\xbeG;'
p4534
tp4535
Rp4536
ag2
(g6
S'jz\t;'
p4537
tp4538
Rp4539
ag2
(g6
S'\x94\xef\x0e<'
p4540
tp4541
Rp4542
ag2
(g6
S'\x19\xe5\xa9;'
p4543
tp4544
Rp4545
ag2
(g6
S'\xceo?;'
p4546
tp4547
Rp4548
ag2
(g6
S'O\xa9K;'
p4549
tp4550
Rp4551
ag2
(g6
S'\x94\xac*:'
p4552
tp4553
Rp4554
ag2
(g6
S'e\xc1\xe8:'
p4555
tp4556
Rp4557
ag2
(g6
S'\xd0\xd5^9'
p4558
tp4559
Rp4560
ag2
(g6
S'\xa2\x9b\xce:'
p4561
tp4562
Rp4563
ag2
(g6
S'\x1f\x86\x04;'
p4564
tp4565
Rp4566
ag2
(g6
S'BZ\x90;'
p4567
tp4568
Rp4569
ag2
(g6
S'\xfd\xae\x93;'
p4570
tp4571
Rp4572
ag2
(g6
S'\x1fJ\xa8;'
p4573
tp4574
Rp4575
ag2
(g6
S'F\xf7\x8b:'
p4576
tp4577
Rp4578
ag2
(g6
S'\x96\xbbW;'
p4579
tp4580
Rp4581
ag2
(g6
S'~pF;'
p4582
tp4583
Rp4584
ag2
(g6
S'\x0f\xbe\t<'
p4585
tp4586
Rp4587
ag2
(g6
S'\x9aQ\xde:'
p4588
tp4589
Rp4590
ag2
(g6
S'\xb1\xb4A9'
p4591
tp4592
Rp4593
ag2
(g6
S'1\xa3\x92:'
p4594
tp4595
Rp4596
ag2
(g6
S'}\x7f>;'
p4597
tp4598
Rp4599
ag2
(g6
S'\x1a\x05\x03<'
p4600
tp4601
Rp4602
ag2
(g6
S'R\xf3\xba:'
p4603
tp4604
Rp4605
ag2
(g6
S'\xf7\xd9\x80:'
p4606
tp4607
Rp4608
ag2
(g6
S't\x1e\xe2;'
p4609
tp4610
Rp4611
ag2
(g6
S'\x93\x94^;'
p4612
tp4613
Rp4614
ag2
(g6
S'\xc9\x10\x10;'
p4615
tp4616
Rp4617
ag2
(g6
S'\xe0+\xb9;'
p4618
tp4619
Rp4620
ag2
(g6
S'R+\xca;'
p4621
tp4622
Rp4623
ag2
(g6
S'\x02\xef\xee;'
p4624
tp4625
Rp4626
ag2
(g6
S'\xf7y\xb3;'
p4627
tp4628
Rp4629
ag2
(g6
S'\x8eDZ<'
p4630
tp4631
Rp4632
ag2
(g6
S'\xc9F\xb6;'
p4633
tp4634
Rp4635
ag2
(g6
S'G\x1d\xa3;'
p4636
tp4637
Rp4638
ag2
(g6
S'\x02\xdd\xeb;'
p4639
tp4640
Rp4641
ag2
(g6
S'Kw0;'
p4642
tp4643
Rp4644
ag2
(g6
S'U\xf7\x04;'
p4645
tp4646
Rp4647
ag2
(g6
S'\xfb\xfa\xc8<'
p4648
tp4649
Rp4650
ag2
(g6
S'\xe5^H;'
p4651
tp4652
Rp4653
ag2
(g6
S'\x03x\xae:'
p4654
tp4655
Rp4656
ag2
(g6
S'\t\xfd\xc7;'
p4657
tp4658
Rp4659
ag2
(g6
S'\x96k\x9f:'
p4660
tp4661
Rp4662
ag2
(g6
S'h\x02\x03<'
p4663
tp4664
Rp4665
ag2
(g6
S'\xfb7g;'
p4666
tp4667
Rp4668
ag2
(g6
S'\xf0\x8f\xab;'
p4669
tp4670
Rp4671
ag2
(g6
S'\xbd\x90$;'
p4672
tp4673
Rp4674
ag2
(g6
S'D~\x11;'
p4675
tp4676
Rp4677
ag2
(g6
S'\x02\xf5\x1c;'
p4678
tp4679
Rp4680
ag2
(g6
S'g#\x1d<'
p4681
tp4682
Rp4683
ag2
(g6
S'PCC;'
p4684
tp4685
Rp4686
ag2
(g6
S'\x81\xe1\x02;'
p4687
tp4688
Rp4689
ag2
(g6
S'*\x8b\xa5;'
p4690
tp4691
Rp4692
ag2
(g6
S'\xdaQ|;'
p4693
tp4694
Rp4695
ag2
(g6
S'\xfb\x0e\x8b;'
p4696
tp4697
Rp4698
ag2
(g6
S'\xec\x86?;'
p4699
tp4700
Rp4701
ag2
(g6
S'l\xcb\xa8;'
p4702
tp4703
Rp4704
ag2
(g6
S'w,r;'
p4705
tp4706
Rp4707
ag2
(g6
S'\x16\xd3\x08;'
p4708
tp4709
Rp4710
ag2
(g6
S'\xfe(\xd2:'
p4711
tp4712
Rp4713
ag2
(g6
S'}g\xd2;'
p4714
tp4715
Rp4716
ag2
(g6
S'"\xcf\xf0:'
p4717
tp4718
Rp4719
ag2
(g6
S'\x8c5\x95:'
p4720
tp4721
Rp4722
ag2
(g6
S'\xcb\xa3\x0b<'
p4723
tp4724
Rp4725
ag2
(g6
S'\xd7 \xad:'
p4726
tp4727
Rp4728
ag2
(g6
S'-\xa98<'
p4729
tp4730
Rp4731
ag2
(g6
S'\xa7P\xe5:'
p4732
tp4733
Rp4734
ag2
(g6
S'\xc9\xe7\xe3;'
p4735
tp4736
Rp4737
ag2
(g6
S'\xd5V\x85;'
p4738
tp4739
Rp4740
ag2
(g6
S'\xdf\x98M;'
p4741
tp4742
Rp4743
ag2
(g6
S'\xef\xcb\xb6;'
p4744
tp4745
Rp4746
ag2
(g6
S'\x83\x91X<'
p4747
tp4748
Rp4749
ag2
(g6
S'\x94Q\xe2:'
p4750
tp4751
Rp4752
ag2
(g6
S'\xb3\xaf\x08;'
p4753
tp4754
Rp4755
ag2
(g6
S'\xc1\xa7\x86;'
p4756
tp4757
Rp4758
ag2
(g6
S'\xe0\xdb\x0b<'
p4759
tp4760
Rp4761
ag2
(g6
S'\x88\xd69;'
p4762
tp4763
Rp4764
ag2
(g6
S'{\xda\xf0:'
p4765
tp4766
Rp4767
ag2
(g6
S'\xa0\xa1m;'
p4768
tp4769
Rp4770
ag2
(g6
S'\xe0\x9b\xc1;'
p4771
tp4772
Rp4773
ag2
(g6
S'{\xcf\xfc:'
p4774
tp4775
Rp4776
ag2
(g6
S'F\x98\x81;'
p4777
tp4778
Rp4779
ag2
(g6
S'\x97I\x94;'
p4780
tp4781
Rp4782
ag2
(g6
S':\x8f\xef;'
p4783
tp4784
Rp4785
ag2
(g6
S'\xec\x89\xc2;'
p4786
tp4787
Rp4788
ag2
(g6
S'D\x03n;'
p4789
tp4790
Rp4791
ag2
(g6
S'-\x8f\x13<'
p4792
tp4793
Rp4794
ag2
(g6
S'\x8f+\xb3;'
p4795
tp4796
Rp4797
ag2
(g6
S'<\x00\xf1;'
p4798
tp4799
Rp4800
ag2
(g6
S'\xc3\x95\xac;'
p4801
tp4802
Rp4803
ag2
(g6
S'\xfe\xbc\x82;'
p4804
tp4805
Rp4806
ag2
(g6
S'\xacd\x8a9'
p4807
tp4808
Rp4809
ag2
(g6
S'@NM<'
p4810
tp4811
Rp4812
ag2
(g6
S'\xd5B\x06<'
p4813
tp4814
Rp4815
ag2
(g6
S'\x94\x0c\xa7;'
p4816
tp4817
Rp4818
ag2
(g6
S'\x1b\xa5J<'
p4819
tp4820
Rp4821
ag2
(g6
S'\xd9\xb7\xb9;'
p4822
tp4823
Rp4824
ag2
(g6
S'+T\x00<'
p4825
tp4826
Rp4827
ag2
(g6
S'\xd7w\xa3;'
p4828
tp4829
Rp4830
ag2
(g6
S'\x1b\x1b\xe4;'
p4831
tp4832
Rp4833
ag2
(g6
S'A^\x91:'
p4834
tp4835
Rp4836
ag2
(g6
S'8/&;'
p4837
tp4838
Rp4839
ag2
(g6
S'\xa0\xb38<'
p4840
tp4841
Rp4842
ag2
(g6
S'L/\x9f;'
p4843
tp4844
Rp4845
ag2
(g6
S'W\xb9);'
p4846
tp4847
Rp4848
ag2
(g6
S'\xa7\xba\xbc;'
p4849
tp4850
Rp4851
ag2
(g6
S'\x143\x1d<'
p4852
tp4853
Rp4854
ag2
(g6
S'\x14\x8eq;'
p4855
tp4856
Rp4857
ag2
(g6
S'\xea\xc4Y<'
p4858
tp4859
Rp4860
ag2
(g6
S'\x92\xa4\xc4;'
p4861
tp4862
Rp4863
ag2
(g6
S'\xf6\xdc\xc0:'
p4864
tp4865
Rp4866
ag2
(g6
S'\x16v\xc7;'
p4867
tp4868
Rp4869
ag2
(g6
S'f\x19\xfd:'
p4870
tp4871
Rp4872
ag2
(g6
S'6\xd9\x1f<'
p4873
tp4874
Rp4875
ag2
(g6
S'$Z\xb4;'
p4876
tp4877
Rp4878
ag2
(g6
S'4\xfe\xaa;'
p4879
tp4880
Rp4881
ag2
(g6
S'@\x9f\x00;'
p4882
tp4883
Rp4884
ag2
(g6
S'n\x04E:'
p4885
tp4886
Rp4887
ag2
(g6
S'\x8b\xe4\x88;'
p4888
tp4889
Rp4890
ag2
(g6
S'y\xa3\xb9;'
p4891
tp4892
Rp4893
ag2
(g6
S'/3\n;'
p4894
tp4895
Rp4896
ag2
(g6
S'\xa1\x96\x9d;'
p4897
tp4898
Rp4899
ag2
(g6
S'\xa3\xb0;;'
p4900
tp4901
Rp4902
ag2
(g6
S'\xe8W\x189'
p4903
tp4904
Rp4905
ag2
(g6
S'\x03-n;'
p4906
tp4907
Rp4908
ag2
(g6
S'\x87\xef\x00;'
p4909
tp4910
Rp4911
ag2
(g6
S'7\xbb+<'
p4912
tp4913
Rp4914
ag2
(g6
S'\xa0\xcb\xfb:'
p4915
tp4916
Rp4917
ag2
(g6
S'\x9c\xf3\xd8;'
p4918
tp4919
Rp4920
ag2
(g6
S'\x9b\xb45;'
p4921
tp4922
Rp4923
ag2
(g6
S'\n[\x1a<'
p4924
tp4925
Rp4926
ag2
(g6
S'!\x00\x0e;'
p4927
tp4928
Rp4929
ag2
(g6
S'\xae\xf5\x12;'
p4930
tp4931
Rp4932
ag2
(g6
S'\xf9\xd3\x81;'
p4933
tp4934
Rp4935
ag2
(g6
S'\xc3\t\x0c;'
p4936
tp4937
Rp4938
ag2
(g6
S'C\xad\x9d;'
p4939
tp4940
Rp4941
ag2
(g6
S'\xed\x0e\x129'
p4942
tp4943
Rp4944
ag2
(g6
S'\xbaN\t<'
p4945
tp4946
Rp4947
ag2
(g6
S'\xfb\x8aj;'
p4948
tp4949
Rp4950
ag2
(g6
S'\xf1\xd3y:'
p4951
tp4952
Rp4953
ag2
(g6
S'\x07\x00\xd7:'
p4954
tp4955
Rp4956
ag2
(g6
S'\x85#/;'
p4957
tp4958
Rp4959
ag2
(g6
S'\x03AY;'
p4960
tp4961
Rp4962
ag2
(g6
S'\xd9>\xb2:'
p4963
tp4964
Rp4965
ag2
(g6
S'\xb7/\xa8;'
p4966
tp4967
Rp4968
ag2
(g6
S'\x91\xf4\x9e:'
p4969
tp4970
Rp4971
ag2
(g6
S'vPT;'
p4972
tp4973
Rp4974
ag2
(g6
S'\xd9\x01\xef:'
p4975
tp4976
Rp4977
ag2
(g6
S'\xa6\x88\xbb;'
p4978
tp4979
Rp4980
ag2
(g6
S'\xa0p\xe3;'
p4981
tp4982
Rp4983
ag2
(g6
S'\xa8a\x89;'
p4984
tp4985
Rp4986
ag2
(g6
S'\xec2\x17;'
p4987
tp4988
Rp4989
ag2
(g6
S'\xef\xc5\x1c;'
p4990
tp4991
Rp4992
ag2
(g6
S'\x91\xe7\xb4;'
p4993
tp4994
Rp4995
ag2
(g6
S'\x15h\xb9;'
p4996
tp4997
Rp4998
ag2
(g6
S'\xad#\x86:'
p4999
tp5000
Rp5001
ag2
(g6
S'\x84\xf0\x98:'
p5002
tp5003
Rp5004
ag2
(g6
S'\xd2\r\xc4;'
p5005
tp5006
Rp5007
ag2
(g6
S'\xd4n(;'
p5008
tp5009
Rp5010
ag2
(g6
S'\xc9h$;'
p5011
tp5012
Rp5013
ag2
(g6
S'\xf6\x89P;'
p5014
tp5015
Rp5016
ag2
(g6
S'\xe9\xb6A<'
p5017
tp5018
Rp5019
ag2
(g6
S'Y\x99#<'
p5020
tp5021
Rp5022
ag2
(g6
S'\x1bf\x90:'
p5023
tp5024
Rp5025
ag2
(g6
S'\x87\xb5\x9d:'
p5026
tp5027
Rp5028
ag2
(g6
S'\xfd\xd9\x94;'
p5029
tp5030
Rp5031
ag2
(g6
S'\x03\xaa\x14<'
p5032
tp5033
Rp5034
ag2
(g6
S'\x89h\xf39'
p5035
tp5036
Rp5037
ag2
(g6
S'\xb2W\x07;'
p5038
tp5039
Rp5040
ag2
(g6
S'\xb9]\x02<'
p5041
tp5042
Rp5043
ag2
(g6
S'\x14M\x0c;'
p5044
tp5045
Rp5046
ag2
(g6
S'm\x1f\xaa:'
p5047
tp5048
Rp5049
ag2
(g6
S'\x1b"|<'
p5050
tp5051
Rp5052
ag2
(g6
S'`f(;'
p5053
tp5054
Rp5055
ag2
(g6
S'\x00Q\x01<'
p5056
tp5057
Rp5058
ag2
(g6
S'\n;\x07;'
p5059
tp5060
Rp5061
ag2
(g6
S'\xefL\x03<'
p5062
tp5063
Rp5064
ag2
(g6
S'K\xfc\xf5;'
p5065
tp5066
Rp5067
ag2
(g6
S'f8\\:'
p5068
tp5069
Rp5070
ag2
(g6
S'\x82\x813<'
p5071
tp5072
Rp5073
ag2
(g6
S'\xf1g\xdc;'
p5074
tp5075
Rp5076
ag2
(g6
S'\xe3\x0bv;'
p5077
tp5078
Rp5079
ag2
(g6
S'\x85\xbc\xc2;'
p5080
tp5081
Rp5082
ag2
(g6
S'\xe8\xd9q;'
p5083
tp5084
Rp5085
ag2
(g6
S' ,^;'
p5086
tp5087
Rp5088
ag2
(g6
S'\xcb\xdd|;'
p5089
tp5090
Rp5091
ag2
(g6
S'\xec\xd2\x19<'
p5092
tp5093
Rp5094
ag2
(g6
S'\xb5\xfe"<'
p5095
tp5096
Rp5097
ag2
(g6
S'\xfc\xd0"<'
p5098
tp5099
Rp5100
ag2
(g6
S"'\xe6\r;"
p5101
tp5102
Rp5103
ag2
(g6
S'\xec2R<'
p5104
tp5105
Rp5106
ag2
(g6
S'\xe1\xc3r;'
p5107
tp5108
Rp5109
ag2
(g6
S'\x057\xd9:'
p5110
tp5111
Rp5112
ag2
(g6
S'"\xea\t;'
p5113
tp5114
Rp5115
ag2
(g6
S'\xbc\xfd\x19;'
p5116
tp5117
Rp5118
ag2
(g6
S'\xd4\xdd\xba;'
p5119
tp5120
Rp5121
ag2
(g6
S'f\xb8\xa4:'
p5122
tp5123
Rp5124
ag2
(g6
S'\xe5\xe3\xbe;'
p5125
tp5126
Rp5127
ag2
(g6
S'\xb3\x1a\xe8:'
p5128
tp5129
Rp5130
ag2
(g6
S'y\xc2\xb2:'
p5131
tp5132
Rp5133
ag2
(g6
S'4x\x9b;'
p5134
tp5135
Rp5136
ag2
(g6
S'o\xd0`;'
p5137
tp5138
Rp5139
ag2
(g6
S',{\xdf;'
p5140
tp5141
Rp5142
ag2
(g6
S'\x8f\xed\x87;'
p5143
tp5144
Rp5145
ag2
(g6
S'\xe65.<'
p5146
tp5147
Rp5148
ag2
(g6
S'\xd0\xcb\xdd;'
p5149
tp5150
Rp5151
ag2
(g6
S'\xb1B\x85;'
p5152
tp5153
Rp5154
ag2
(g6
S'Lo-;'
p5155
tp5156
Rp5157
ag2
(g6
S'\xd7U];'
p5158
tp5159
Rp5160
ag2
(g6
S'\x9e>\xc8;'
p5161
tp5162
Rp5163
ag2
(g6
S'\x1f\xce\x17='
p5164
tp5165
Rp5166
ag2
(g6
S'D 1;'
p5167
tp5168
Rp5169
ag2
(g6
S'\x0f\x8c\xd3;'
p5170
tp5171
Rp5172
ag2
(g6
S'T?e;'
p5173
tp5174
Rp5175
ag2
(g6
S'\x1b\xf1\xf2;'
p5176
tp5177
Rp5178
ag2
(g6
S'\x87\x18\r;'
p5179
tp5180
Rp5181
ag2
(g6
S'r\xbf\x8b;'
p5182
tp5183
Rp5184
ag2
(g6
S'm\x1f\x97:'
p5185
tp5186
Rp5187
ag2
(g6
S']\xd1:;'
p5188
tp5189
Rp5190
ag2
(g6
S'\xfc[H;'
p5191
tp5192
Rp5193
ag2
(g6
S'\x00\x94\x97;'
p5194
tp5195
Rp5196
ag2
(g6
S'K\xe9\xf9;'
p5197
tp5198
Rp5199
ag2
(g6
S')\x98\x11<'
p5200
tp5201
Rp5202
ag2
(g6
S'$\xc4U<'
p5203
tp5204
Rp5205
ag2
(g6
S'\xd9#\x80:'
p5206
tp5207
Rp5208
ag2
(g6
S'\x8ef\xde;'
p5209
tp5210
Rp5211
ag2
(g6
S'q~1;'
p5212
tp5213
Rp5214
ag2
(g6
S'\x8cY\x94:'
p5215
tp5216
Rp5217
ag2
(g6
S'\xfepH;'
p5218
tp5219
Rp5220
ag2
(g6
S'\x0cs\xdb:'
p5221
tp5222
Rp5223
ag2
(g6
S'\x1f\xb8\r<'
p5224
tp5225
Rp5226
ag2
(g6
S"'qk;"
p5227
tp5228
Rp5229
ag2
(g6
S'\x0f\x91\x08<'
p5230
tp5231
Rp5232
ag2
(g6
S'\xfd\xa6\xde8'
p5233
tp5234
Rp5235
ag2
(g6
S'\x94\xeb\x0f;'
p5236
tp5237
Rp5238
ag2
(g6
S'\xed\x9c\x18<'
p5239
tp5240
Rp5241
ag2
(g6
S'\xed\xdb6:'
p5242
tp5243
Rp5244
ag2
(g6
S'\x83I\xac;'
p5245
tp5246
Rp5247
ag2
(g6
S'\xc4j\xf79'
p5248
tp5249
Rp5250
ag2
(g6
S'lC(;'
p5251
tp5252
Rp5253
ag2
(g6
S'\xf4"\x90;'
p5254
tp5255
Rp5256
ag2
(g6
S'*n+;'
p5257
tp5258
Rp5259
ag2
(g6
S'\xa0\xfd{<'
p5260
tp5261
Rp5262
ag2
(g6
S'\x86\xe1\x05;'
p5263
tp5264
Rp5265
ag2
(g6
S'W \x93;'
p5266
tp5267
Rp5268
ag2
(g6
S'\xc3\x00H;'
p5269
tp5270
Rp5271
ag2
(g6
S'\xb7q];'
p5272
tp5273
Rp5274
ag2
(g6
S'm\xf3{:'
p5275
tp5276
Rp5277
ag2
(g6
S'\xb1\xee\xb9:'
p5278
tp5279
Rp5280
ag2
(g6
S'\xa6>\x0b;'
p5281
tp5282
Rp5283
ag2
(g6
S'\x80\x95\xf1;'
p5284
tp5285
Rp5286
ag2
(g6
S'w\xf3\xad;'
p5287
tp5288
Rp5289
ag2
(g6
S'\xbdm:;'
p5290
tp5291
Rp5292
ag2
(g6
S'i\x06\x0c;'
p5293
tp5294
Rp5295
ag2
(g6
S'\x00\x19\x81;'
p5296
tp5297
Rp5298
ag2
(g6
S'\xda\xcb\xe49'
p5299
tp5300
Rp5301
ag2
(g6
S'@\xc1\x18:'
p5302
tp5303
Rp5304
ag2
(g6
S'\x0c{\x06;'
p5305
tp5306
Rp5307
ag2
(g6
S'\xda\x97?:'
p5308
tp5309
Rp5310
ag2
(g6
S'y\x15\x86;'
p5311
tp5312
Rp5313
ag2
(g6
S'0\x85\xc7;'
p5314
tp5315
Rp5316
ag2
(g6
S'\xab\x7f\x1c;'
p5317
tp5318
Rp5319
ag2
(g6
S'\xcd\xfb|:'
p5320
tp5321
Rp5322
ag2
(g6
S'^\x10\x99:'
p5323
tp5324
Rp5325
ag2
(g6
S'\x87\xe9k;'
p5326
tp5327
Rp5328
ag2
(g6
S'\x12\xf9\xd2;'
p5329
tp5330
Rp5331
ag2
(g6
S'CFJ;'
p5332
tp5333
Rp5334
ag2
(g6
S'\x11\xe7a;'
p5335
tp5336
Rp5337
ag2
(g6
S'\x0era;'
p5338
tp5339
Rp5340
ag2
(g6
S'\x05\xb0\xbb;'
p5341
tp5342
Rp5343
ag2
(g6
S'\x9a\x82\xf99'
p5344
tp5345
Rp5346
ag2
(g6
S'Cj\x89;'
p5347
tp5348
Rp5349
ag2
(g6
S'#f4<'
p5350
tp5351
Rp5352
ag2
(g6
S"'\xa8\xbc;"
p5353
tp5354
Rp5355
ag2
(g6
S'{\xc4[:'
p5356
tp5357
Rp5358
ag2
(g6
S'V\x1d;;'
p5359
tp5360
Rp5361
ag2
(g6
S'C.\xc5;'
p5362
tp5363
Rp5364
ag2
(g6
S'\x07\x9ak:'
p5365
tp5366
Rp5367
ag2
(g6
S'\xc8\xc6\x87:'
p5368
tp5369
Rp5370
ag2
(g6
S'\x93w`<'
p5371
tp5372
Rp5373
ag2
(g6
S'\xcd\x87d:'
p5374
tp5375
Rp5376
ag2
(g6
S'\x1b`\xa5;'
p5377
tp5378
Rp5379
ag2
(g6
S'\xa4\x07\x94:'
p5380
tp5381
Rp5382
ag2
(g6
S'P\x94,<'
p5383
tp5384
Rp5385
ag2
(g6
S'\x13\xc4\xd08'
p5386
tp5387
Rp5388
ag2
(g6
S'\xbd(\x97;'
p5389
tp5390
Rp5391
ag2
(g6
S'\x85gP<'
p5392
tp5393
Rp5394
ag2
(g6
S'\\\xe6\x07<'
p5395
tp5396
Rp5397
ag2
(g6
S'\x83#\x88;'
p5398
tp5399
Rp5400
ag2
(g6
S'\\n\xdd;'
p5401
tp5402
Rp5403
ag2
(g6
S'\xd2>\xaf;'
p5404
tp5405
Rp5406
ag2
(g6
S'Z\x82\x95:'
p5407
tp5408
Rp5409
ag2
(g6
S'?\xc4\xa3;'
p5410
tp5411
Rp5412
ag2
(g6
S'\xbd\xfb\x81;'
p5413
tp5414
Rp5415
ag2
(g6
S'\x83\x98\x04<'
p5416
tp5417
Rp5418
ag2
(g6
S'\xc3\x856;'
p5419
tp5420
Rp5421
ag2
(g6
S'FN-:'
p5422
tp5423
Rp5424
ag2
(g6
S'\x84I\xce;'
p5425
tp5426
Rp5427
ag2
(g6
S'W\xe4:;'
p5428
tp5429
Rp5430
ag2
(g6
S'\xcc\x84\xc6;'
p5431
tp5432
Rp5433
ag2
(g6
S'\x1ba\xad9'
p5434
tp5435
Rp5436
ag2
(g6
S'\x91H+<'
p5437
tp5438
Rp5439
ag2
(g6
S'un\xb3;'
p5440
tp5441
Rp5442
ag2
(g6
S'R%7;'
p5443
tp5444
Rp5445
ag2
(g6
S'A{v:'
p5446
tp5447
Rp5448
ag2
(g6
S'\x18 \xdf;'
p5449
tp5450
Rp5451
ag2
(g6
S'\xf2v\x11;'
p5452
tp5453
Rp5454
ag2
(g6
S'\x85\x85\\;'
p5455
tp5456
Rp5457
ag2
(g6
S'c\x10G<'
p5458
tp5459
Rp5460
ag2
(g6
S'`E\xf0;'
p5461
tp5462
Rp5463
ag2
(g6
S'z-7;'
p5464
tp5465
Rp5466
ag2
(g6
S'\x03;\x06:'
p5467
tp5468
Rp5469
ag2
(g6
S'\xdc\xcf\x9d<'
p5470
tp5471
Rp5472
ag2
(g6
S'f\x9dZ;'
p5473
tp5474
Rp5475
ag2
(g6
S'\xa4\xd0%;'
p5476
tp5477
Rp5478
ag2
(g6
S'\xf2\xb8\xb6:'
p5479
tp5480
Rp5481
ag2
(g6
S'm\xa2\x8c;'
p5482
tp5483
Rp5484
ag2
(g6
S'\xd7\xc4x;'
p5485
tp5486
Rp5487
ag2
(g6
S'Q\xf5>;'
p5488
tp5489
Rp5490
ag2
(g6
S'\xa7\xc0\x84;'
p5491
tp5492
Rp5493
ag2
(g6
S"'\xc4>;"
p5494
tp5495
Rp5496
ag2
(g6
S'\xc6\xae\xe4:'
p5497
tp5498
Rp5499
ag2
(g6
S'\xb7\x94%;'
p5500
tp5501
Rp5502
ag2
(g6
S'\x8e\x109<'
p5503
tp5504
Rp5505
ag2
(g6
S'\xcfU\x05<'
p5506
tp5507
Rp5508
ag2
(g6
S'f\xf6\x02<'
p5509
tp5510
Rp5511
ag2
(g6
S'w\xf5\xa2;'
p5512
tp5513
Rp5514
ag2
(g6
S'`\xd0\xab;'
p5515
tp5516
Rp5517
ag2
(g6
S'wE&<'
p5518
tp5519
Rp5520
ag2
(g6
S'\x8cDz<'
p5521
tp5522
Rp5523
ag2
(g6
S'\xe3Qs;'
p5524
tp5525
Rp5526
ag2
(g6
S'\xea)\x9d:'
p5527
tp5528
Rp5529
ag2
(g6
S'\x18\x0fx;'
p5530
tp5531
Rp5532
ag2
(g6
S'\xe2)%;'
p5533
tp5534
Rp5535
ag2
(g6
S'\xde\xfd_<'
p5536
tp5537
Rp5538
ag2
(g6
S'\xc0\xfcL;'
p5539
tp5540
Rp5541
ag2
(g6
S'Z\\\x93;'
p5542
tp5543
Rp5544
ag2
(g6
S'P\x06E;'
p5545
tp5546
Rp5547
ag2
(g6
S'}\x8d\xc6;'
p5548
tp5549
Rp5550
ag2
(g6
S'\x16;\x81;'
p5551
tp5552
Rp5553
ag2
(g6
S'\x07\xc4\xf2;'
p5554
tp5555
Rp5556
ag2
(g6
S'"\x97s;'
p5557
tp5558
Rp5559
ag2
(g6
S'\x94fi;'
p5560
tp5561
Rp5562
ag2
(g6
S'KZ\x10;'
p5563
tp5564
Rp5565
ag2
(g6
S'O=g;'
p5566
tp5567
Rp5568
ag2
(g6
S'H\x9c\xa2;'
p5569
tp5570
Rp5571
ag2
(g6
S'\x9c\xeb\x86;'
p5572
tp5573
Rp5574
ag2
(g6
S"'(\xc4:"
p5575
tp5576
Rp5577
ag2
(g6
S'"\x99D;'
p5578
tp5579
Rp5580
ag2
(g6
S'\xa3\xf3\x9d;'
p5581
tp5582
Rp5583
ag2
(g6
S'5\x1c\xb5;'
p5584
tp5585
Rp5586
ag2
(g6
S'\xed\xdd\xcf:'
p5587
tp5588
Rp5589
ag2
(g6
S'T\xcc\x83:'
p5590
tp5591
Rp5592
ag2
(g6
S'\xe6\xb3:<'
p5593
tp5594
Rp5595
ag2
(g6
S'T\xe6A;'
p5596
tp5597
Rp5598
ag2
(g6
S'h\xf3\xbe;'
p5599
tp5600
Rp5601
ag2
(g6
S'\xe3\xc2>;'
p5602
tp5603
Rp5604
ag2
(g6
S'\x9f\xd9\xcc;'
p5605
tp5606
Rp5607
ag2
(g6
S'\x88\xc3?;'
p5608
tp5609
Rp5610
ag2
(g6
S'\x9d}\xb3;'
p5611
tp5612
Rp5613
ag2
(g6
S'\xc8\xcc\xc6:'
p5614
tp5615
Rp5616
ag2
(g6
S',\x89\x87:'
p5617
tp5618
Rp5619
ag2
(g6
S'\xd1!\x06<'
p5620
tp5621
Rp5622
ag2
(g6
S'$L\x97:'
p5623
tp5624
Rp5625
ag2
(g6
S'\xfdI\xe6:'
p5626
tp5627
Rp5628
ag2
(g6
S'8\xa2\x0e;'
p5629
tp5630
Rp5631
ag2
(g6
S'\x01\xc2\xb89'
p5632
tp5633
Rp5634
ag2
(g6
S':`\x02;'
p5635
tp5636
Rp5637
ag2
(g6
S's\xad:;'
p5638
tp5639
Rp5640
ag2
(g6
S'$,\t;'
p5641
tp5642
Rp5643
ag2
(g6
S'\xf7\xcc\xb3;'
p5644
tp5645
Rp5646
ag2
(g6
S'\x06L)<'
p5647
tp5648
Rp5649
ag2
(g6
S'\xbc`-<'
p5650
tp5651
Rp5652
ag2
(g6
S'\x113&;'
p5653
tp5654
Rp5655
ag2
(g6
S'\xc9\x02\xa7;'
p5656
tp5657
Rp5658
ag2
(g6
S'A\xa0\xf5:'
p5659
tp5660
Rp5661
ag2
(g6
S'\xe6\xc9d;'
p5662
tp5663
Rp5664
ag2
(g6
S'\xefl\x8c;'
p5665
tp5666
Rp5667
ag2
(g6
S'\xa7\x9da;'
p5668
tp5669
Rp5670
ag2
(g6
S'\xb4H?;'
p5671
tp5672
Rp5673
ag2
(g6
S'CFY;'
p5674
tp5675
Rp5676
ag2
(g6
S'\xb1\x94p;'
p5677
tp5678
Rp5679
ag2
(g6
S'\xea\x9a\xa1:'
p5680
tp5681
Rp5682
ag2
(g6
S' o2<'
p5683
tp5684
Rp5685
ag2
(g6
S'\xe6@";'
p5686
tp5687
Rp5688
ag2
(g6
S'\xcc\xb2B;'
p5689
tp5690
Rp5691
ag2
(g6
S' \xd8&<'
p5692
tp5693
Rp5694
ag2
(g6
S'\xdc?\x83<'
p5695
tp5696
Rp5697
ag2
(g6
S'\xae\xf7)<'
p5698
tp5699
Rp5700
ag2
(g6
S'\xb8\xf5\xfa:'
p5701
tp5702
Rp5703
ag2
(g6
S'\x0e:\xef;'
p5704
tp5705
Rp5706
ag2
(g6
S'\xb8\xfe\xdd:'
p5707
tp5708
Rp5709
ag2
(g6
S'\x8aQ];'
p5710
tp5711
Rp5712
ag2
(g6
S'v\x81:;'
p5713
tp5714
Rp5715
ag2
(g6
S'\xd2Q\xa3;'
p5716
tp5717
Rp5718
ag2
(g6
S'\x1a\xf7\x86;'
p5719
tp5720
Rp5721
ag2
(g6
S'\x1b\xb9R;'
p5722
tp5723
Rp5724
ag2
(g6
S'\xd7\x1c\x89;'
p5725
tp5726
Rp5727
ag2
(g6
S'3T\x0e;'
p5728
tp5729
Rp5730
ag2
(g6
S':b\xd6:'
p5731
tp5732
Rp5733
ag2
(g6
S'\x14\xa4\x7f;'
p5734
tp5735
Rp5736
ag2
(g6
S'\xded^;'
p5737
tp5738
Rp5739
ag2
(g6
S'\x120\xb6;'
p5740
tp5741
Rp5742
ag2
(g6
S'u\x16E;'
p5743
tp5744
Rp5745
ag2
(g6
S'\xcf\xe5};'
p5746
tp5747
Rp5748
ag2
(g6
S"\xa6'\x12;"
p5749
tp5750
Rp5751
ag2
(g6
S'\xab\xda\xe1:'
p5752
tp5753
Rp5754
ag2
(g6
S'+#\xe8:'
p5755
tp5756
Rp5757
ag2
(g6
S'\xc8]\xb6:'
p5758
tp5759
Rp5760
ag2
(g6
S'\x9bU\x98;'
p5761
tp5762
Rp5763
ag2
(g6
S'\t\xc37;'
p5764
tp5765
Rp5766
ag2
(g6
S'2w\x88;'
p5767
tp5768
Rp5769
ag2
(g6
S'\xde\xde3<'
p5770
tp5771
Rp5772
ag2
(g6
S'.;q<'
p5773
tp5774
Rp5775
ag2
(g6
S'\xef\xfe\n:'
p5776
tp5777
Rp5778
ag2
(g6
S'\xe62\xcc:'
p5779
tp5780
Rp5781
ag2
(g6
S'\xa6\xcc\x9a;'
p5782
tp5783
Rp5784
ag2
(g6
S'\x94@\xd3;'
p5785
tp5786
Rp5787
ag2
(g6
S'\xcboZ<'
p5788
tp5789
Rp5790
ag2
(g6
S'\xdeu\xf1:'
p5791
tp5792
Rp5793
ag2
(g6
S'\x0cq$<'
p5794
tp5795
Rp5796
ag2
(g6
S'v\xe0\x14;'
p5797
tp5798
Rp5799
ag2
(g6
S'\xf4M\x86:'
p5800
tp5801
Rp5802
ag2
(g6
S'H\xc6\x98;'
p5803
tp5804
Rp5805
ag2
(g6
S')\x12L;'
p5806
tp5807
Rp5808
ag2
(g6
S'\xcb\xb4q;'
p5809
tp5810
Rp5811
ag2
(g6
S'\x94\x93\x82;'
p5812
tp5813
Rp5814
ag2
(g6
S'9s\x81;'
p5815
tp5816
Rp5817
ag2
(g6
S'D\xac\x96;'
p5818
tp5819
Rp5820
ag2
(g6
S'\xa2.\xa9:'
p5821
tp5822
Rp5823
ag2
(g6
S'\x12/J;'
p5824
tp5825
Rp5826
ag2
(g6
S'\xe5\x00\x94;'
p5827
tp5828
Rp5829
ag2
(g6
S'\\\x13\xca;'
p5830
tp5831
Rp5832
ag2
(g6
S'3\xe5\x84;'
p5833
tp5834
Rp5835
ag2
(g6
S'\xb1\xed\xb6;'
p5836
tp5837
Rp5838
ag2
(g6
S'\x13\x96L;'
p5839
tp5840
Rp5841
ag2
(g6
S'r\xe3\xab:'
p5842
tp5843
Rp5844
ag2
(g6
S'\xb9\xe4H:'
p5845
tp5846
Rp5847
ag2
(g6
S'[K\xb38'
p5848
tp5849
Rp5850
ag2
(g6
S'\x8a\xf5\xd1;'
p5851
tp5852
Rp5853
ag2
(g6
S'E\x19\x99;'
p5854
tp5855
Rp5856
ag2
(g6
S'\xde\xc0\xe8;'
p5857
tp5858
Rp5859
ag2
(g6
S'\xd4\xfc\xdc;'
p5860
tp5861
Rp5862
ag2
(g6
S'\x10Q\x97;'
p5863
tp5864
Rp5865
ag2
(g6
S'\x85\xae\xec;'
p5866
tp5867
Rp5868
ag2
(g6
S'\xd2<L;'
p5869
tp5870
Rp5871
ag2
(g6
S'\xeay:;'
p5872
tp5873
Rp5874
ag2
(g6
S'\xc5]\x82;'
p5875
tp5876
Rp5877
ag2
(g6
S'\xc36\xe1;'
p5878
tp5879
Rp5880
ag2
(g6
S'w\xd3x:'
p5881
tp5882
Rp5883
ag2
(g6
S'\x8f\xd7\x7f;'
p5884
tp5885
Rp5886
ag2
(g6
S'\xd6K\xa1:'
p5887
tp5888
Rp5889
ag2
(g6
S'\xa4\xf1\x8b;'
p5890
tp5891
Rp5892
ag2
(g6
S'f\xf5\x08<'
p5893
tp5894
Rp5895
ag2
(g6
S' \x0c\x87;'
p5896
tp5897
Rp5898
ag2
(g6
S'\xa9\xf9\x97;'
p5899
tp5900
Rp5901
ag2
(g6
S'Q<\xcd:'
p5902
tp5903
Rp5904
ag2
(g6
S'\xa4\rd:'
p5905
tp5906
Rp5907
ag2
(g6
S'\xabG\xde:'
p5908
tp5909
Rp5910
ag2
(g6
S'\x0c\xc0\x8e;'
p5911
tp5912
Rp5913
ag2
(g6
S'\xcf\xb7\x969'
p5914
tp5915
Rp5916
ag2
(g6
S'\xdaB\xfa;'
p5917
tp5918
Rp5919
ag2
(g6
S'L\xfcQ<'
p5920
tp5921
Rp5922
ag2
(g6
S'\x9ac(;'
p5923
tp5924
Rp5925
ag2
(g6
S'\xb8W\x8d;'
p5926
tp5927
Rp5928
ag2
(g6
S'\xd4u\xd1;'
p5929
tp5930
Rp5931
ag2
(g6
S'j!\x12;'
p5932
tp5933
Rp5934
ag2
(g6
S'SR\xca;'
p5935
tp5936
Rp5937
ag2
(g6
S'\xba\\-;'
p5938
tp5939
Rp5940
ag2
(g6
S')\x10\xd1;'
p5941
tp5942
Rp5943
ag2
(g6
S'\x0fE\x8a;'
p5944
tp5945
Rp5946
ag2
(g6
S'\xa9\xb3\xbd;'
p5947
tp5948
Rp5949
ag2
(g6
S'\xf7j"<'
p5950
tp5951
Rp5952
ag2
(g6
S'\xbe\xeb(<'
p5953
tp5954
Rp5955
ag2
(g6
S'\x05\xc5\x12;'
p5956
tp5957
Rp5958
ag2
(g6
S'\xd8*\xd5:'
p5959
tp5960
Rp5961
ag2
(g6
S'og\r;'
p5962
tp5963
Rp5964
ag2
(g6
S'\x89tA;'
p5965
tp5966
Rp5967
ag2
(g6
S'\x85\xd9\xc2;'
p5968
tp5969
Rp5970
ag2
(g6
S'\xbf\xdd\xec9'
p5971
tp5972
Rp5973
ag2
(g6
S'\x14\x9c\xcb;'
p5974
tp5975
Rp5976
ag2
(g6
S'\xe3ud;'
p5977
tp5978
Rp5979
ag2
(g6
S'\x15\x03$;'
p5980
tp5981
Rp5982
ag2
(g6
S'\xb7<x;'
p5983
tp5984
Rp5985
ag2
(g6
S'}$L:'
p5986
tp5987
Rp5988
ag2
(g6
S'l\xb5\xa0;'
p5989
tp5990
Rp5991
ag2
(g6
S'(:\x87;'
p5992
tp5993
Rp5994
ag2
(g6
S'\xcf{0;'
p5995
tp5996
Rp5997
ag2
(g6
S'j\xeb\xe2;'
p5998
tp5999
Rp6000
ag2
(g6
S'\x18\x8c\xc1<'
p6001
tp6002
Rp6003
ag2
(g6
S'\x184{;'
p6004
tp6005
Rp6006
ag2
(g6
S'Oo\x8e9'
p6007
tp6008
Rp6009
ag2
(g6
S'Up_<'
p6010
tp6011
Rp6012
ag2
(g6
S'c\xe7\xd8:'
p6013
tp6014
Rp6015
ag2
(g6
S'\xb3\xbfG<'
p6016
tp6017
Rp6018
ag2
(g6
S'\x98ZO;'
p6019
tp6020
Rp6021
ag2
(g6
S'\xa4\xf6O<'
p6022
tp6023
Rp6024
ag2
(g6
S'\xe4l\x89;'
p6025
tp6026
Rp6027
ag2
(g6
S'\xd1@\xc8;'
p6028
tp6029
Rp6030
ag2
(g6
S'{\x16\x9d;'
p6031
tp6032
Rp6033
ag2
(g6
S'\xa7Cj<'
p6034
tp6035
Rp6036
ag2
(g6
S'\x9a\xd2b;'
p6037
tp6038
Rp6039
ag2
(g6
S'\x19w\xca:'
p6040
tp6041
Rp6042
ag2
(g6
S'`9v;'
p6043
tp6044
Rp6045
ag2
(g6
S'\xc9\xfc\x0b;'
p6046
tp6047
Rp6048
ag2
(g6
S'2\x94\x94;'
p6049
tp6050
Rp6051
ag2
(g6
S'\xad\xdf4<'
p6052
tp6053
Rp6054
ag2
(g6
S'}\xc9\xcd;'
p6055
tp6056
Rp6057
ag2
(g6
S'\xcf\n\x1a<'
p6058
tp6059
Rp6060
ag2
(g6
S'\x80\x11\x80;'
p6061
tp6062
Rp6063
ag2
(g6
S'\xcb6L:'
p6064
tp6065
Rp6066
ag2
(g6
S'\x0cV\x7f;'
p6067
tp6068
Rp6069
ag2
(g6
S'\xc3h)<'
p6070
tp6071
Rp6072
ag2
(g6
S'tE\xca;'
p6073
tp6074
Rp6075
ag2
(g6
S'\xa8<(;'
p6076
tp6077
Rp6078
ag2
(g6
S'\x8fmR;'
p6079
tp6080
Rp6081
ag2
(g6
S'\xcdp\x08<'
p6082
tp6083
Rp6084
ag2
(g6
S'\xdaS\xa3;'
p6085
tp6086
Rp6087
ag2
(g6
S'\x87\xa4\x81;'
p6088
tp6089
Rp6090
ag2
(g6
S'O9f;'
p6091
tp6092
Rp6093
ag2
(g6
S'\xf9\xae\xde;'
p6094
tp6095
Rp6096
ag2
(g6
S'\x9f\xe4\x1f<'
p6097
tp6098
Rp6099
ag2
(g6
S'\x03\xb3Z;'
p6100
tp6101
Rp6102
ag2
(g6
S'\x1b%\t<'
p6103
tp6104
Rp6105
ag2
(g6
S'O\x04\t;'
p6106
tp6107
Rp6108
ag2
(g6
S'\xd3\xf6N<'
p6109
tp6110
Rp6111
ag2
(g6
S'\x8e\x80/;'
p6112
tp6113
Rp6114
ag2
(g6
S'L`6;'
p6115
tp6116
Rp6117
ag2
(g6
S'h\x86\x88;'
p6118
tp6119
Rp6120
ag2
(g6
S'\xb0\xa5\x05<'
p6121
tp6122
Rp6123
ag2
(g6
S'B8-<'
p6124
tp6125
Rp6126
ag2
(g6
S'\t\x9d!<'
p6127
tp6128
Rp6129
ag2
(g6
S'\tf1;'
p6130
tp6131
Rp6132
ag2
(g6
S'C\x15\xcc;'
p6133
tp6134
Rp6135
ag2
(g6
S'\xd7\xa2[9'
p6136
tp6137
Rp6138
ag2
(g6
S'\xea\x13\x06<'
p6139
tp6140
Rp6141
ag2
(g6
S'\x00\x87|:'
p6142
tp6143
Rp6144
ag2
(g6
S'\xd4u\x8f:'
p6145
tp6146
Rp6147
ag2
(g6
S'\xbao;;'
p6148
tp6149
Rp6150
ag2
(g6
S'\x1b\xcf[;'
p6151
tp6152
Rp6153
aa(lp6154
g2
(g6
S'\xd7\xfc\xd7;'
p6155
tp6156
Rp6157
ag2
(g6
S'\xec\xb2\xe2;'
p6158
tp6159
Rp6160
ag2
(g6
S'+\x9a0<'
p6161
tp6162
Rp6163
ag2
(g6
S'\xae\xffa;'
p6164
tp6165
Rp6166
ag2
(g6
S'z\xf8\xf1;'
p6167
tp6168
Rp6169
ag2
(g6
S'd\xd7\xd1:'
p6170
tp6171
Rp6172
ag2
(g6
S'G\xe7x9'
p6173
tp6174
Rp6175
ag2
(g6
S'\x1e$\x13<'
p6176
tp6177
Rp6178
ag2
(g6
S'#\x89\xbf:'
p6179
tp6180
Rp6181
ag2
(g6
S'\x12\xe0\xdb;'
p6182
tp6183
Rp6184
ag2
(g6
S'\xb6\xdbH;'
p6185
tp6186
Rp6187
ag2
(g6
S'5g <'
p6188
tp6189
Rp6190
ag2
(g6
S'\x81\x13d:'
p6191
tp6192
Rp6193
ag2
(g6
S'\xea\x8c\x83;'
p6194
tp6195
Rp6196
ag2
(g6
S'M\xf6x;'
p6197
tp6198
Rp6199
ag2
(g6
S'j\xba\x89;'
p6200
tp6201
Rp6202
ag2
(g6
S'\xec\x97\xd2;'
p6203
tp6204
Rp6205
ag2
(g6
S'\xd9\xd0\xc4:'
p6206
tp6207
Rp6208
ag2
(g6
S'U\xb3\xc7;'
p6209
tp6210
Rp6211
ag2
(g6
S' $M;'
p6212
tp6213
Rp6214
ag2
(g6
S'\xd5Y\xcf;'
p6215
tp6216
Rp6217
ag2
(g6
S"'X\xe0;"
p6218
tp6219
Rp6220
ag2
(g6
S'\x83\xd2.;'
p6221
tp6222
Rp6223
ag2
(g6
S'\x17\xc3F;'
p6224
tp6225
Rp6226
ag2
(g6
S'\xa4\xd1\xb9;'
p6227
tp6228
Rp6229
ag2
(g6
S'\n\xff=<'
p6230
tp6231
Rp6232
ag2
(g6
S'\x97s\x10;'
p6233
tp6234
Rp6235
ag2
(g6
S'M\xeaa<'
p6236
tp6237
Rp6238
ag2
(g6
S'\x1c\x96:;'
p6239
tp6240
Rp6241
ag2
(g6
S'@\xcc\xff:'
p6242
tp6243
Rp6244
ag2
(g6
S'\xc5\x95\xdd;'
p6245
tp6246
Rp6247
ag2
(g6
S'\xe8w\x00;'
p6248
tp6249
Rp6250
ag2
(g6
S'\xd0\x84\x04<'
p6251
tp6252
Rp6253
ag2
(g6
S'\x17\xa12;'
p6254
tp6255
Rp6256
ag2
(g6
S'\xe1\xde\x8b;'
p6257
tp6258
Rp6259
ag2
(g6
S"\xf5\x99'<"
p6260
tp6261
Rp6262
ag2
(g6
S'\nG\x7f:'
p6263
tp6264
Rp6265
ag2
(g6
S'\x86\x04+='
p6266
tp6267
Rp6268
ag2
(g6
S'\xe7{\xa49'
p6269
tp6270
Rp6271
ag2
(g6
S'n\xe5S:'
p6272
tp6273
Rp6274
ag2
(g6
S'\xbb\x95r;'
p6275
tp6276
Rp6277
ag2
(g6
S'\xbblC;'
p6278
tp6279
Rp6280
ag2
(g6
S'H]\x93;'
p6281
tp6282
Rp6283
ag2
(g6
S'\x01E\xc6;'
p6284
tp6285
Rp6286
ag2
(g6
S'\x97\x16\x8b;'
p6287
tp6288
Rp6289
ag2
(g6
S'\xf2*\xf0<'
p6290
tp6291
Rp6292
ag2
(g6
S'9.\xfd;'
p6293
tp6294
Rp6295
ag2
(g6
S'\xcd?{;'
p6296
tp6297
Rp6298
ag2
(g6
S'\x18|\\;'
p6299
tp6300
Rp6301
ag2
(g6
S'\x83\x9a\x9f;'
p6302
tp6303
Rp6304
ag2
(g6
S'8\tO;'
p6305
tp6306
Rp6307
ag2
(g6
S'\xa4\xebS:'
p6308
tp6309
Rp6310
ag2
(g6
S'v\xb0G;'
p6311
tp6312
Rp6313
ag2
(g6
S'&\xed\x89<'
p6314
tp6315
Rp6316
ag2
(g6
S'\xad\rV<'
p6317
tp6318
Rp6319
ag2
(g6
S'w\xb3\x99;'
p6320
tp6321
Rp6322
ag2
(g6
S'\x82(\x92<'
p6323
tp6324
Rp6325
ag2
(g6
S'\xccD"<'
p6326
tp6327
Rp6328
ag2
(g6
S'\xe1\xb5U;'
p6329
tp6330
Rp6331
ag2
(g6
S'\xa70\x93;'
p6332
tp6333
Rp6334
ag2
(g6
S'\xa6\x9d|;'
p6335
tp6336
Rp6337
ag2
(g6
S'w\xd1&<'
p6338
tp6339
Rp6340
ag2
(g6
S'nvO;'
p6341
tp6342
Rp6343
ag2
(g6
S'\xb5\xd4\xfc:'
p6344
tp6345
Rp6346
ag2
(g6
S'\tZ\xec;'
p6347
tp6348
Rp6349
ag2
(g6
S'\xa5&\xc6;'
p6350
tp6351
Rp6352
ag2
(g6
S'\x02\xae\xd0;'
p6353
tp6354
Rp6355
ag2
(g6
S'\xbf\x1f\x8f;'
p6356
tp6357
Rp6358
ag2
(g6
S'\x05\xaa\x98;'
p6359
tp6360
Rp6361
ag2
(g6
S'i6\xb7;'
p6362
tp6363
Rp6364
ag2
(g6
S'<E(<'
p6365
tp6366
Rp6367
ag2
(g6
S'\xe7@\xd7;'
p6368
tp6369
Rp6370
ag2
(g6
S'\x98\x17\x8c;'
p6371
tp6372
Rp6373
ag2
(g6
S'^\xcf\xf0;'
p6374
tp6375
Rp6376
ag2
(g6
S'\xf9\xfd\xc6;'
p6377
tp6378
Rp6379
ag2
(g6
S'\x7f\xa4\x0b;'
p6380
tp6381
Rp6382
ag2
(g6
S'4\x88f;'
p6383
tp6384
Rp6385
ag2
(g6
S'(Z\x89;'
p6386
tp6387
Rp6388
ag2
(g6
S'\x12\xe8<;'
p6389
tp6390
Rp6391
ag2
(g6
S'\xbc.\xc59'
p6392
tp6393
Rp6394
ag2
(g6
S'\x8a^\x8d;'
p6395
tp6396
Rp6397
ag2
(g6
S'\xde\x93\xe7;'
p6398
tp6399
Rp6400
ag2
(g6
S'\xe6Jl<'
p6401
tp6402
Rp6403
ag2
(g6
S'l\x1d\x88;'
p6404
tp6405
Rp6406
ag2
(g6
S')\xd2@;'
p6407
tp6408
Rp6409
ag2
(g6
S'\x10r\xb3;'
p6410
tp6411
Rp6412
ag2
(g6
S'\xce\x10E;'
p6413
tp6414
Rp6415
ag2
(g6
S'\xa53j<'
p6416
tp6417
Rp6418
ag2
(g6
S'\xe6\xc5\x18<'
p6419
tp6420
Rp6421
ag2
(g6
S'w\xbb\xbb;'
p6422
tp6423
Rp6424
ag2
(g6
S'\xb9K\xf9;'
p6425
tp6426
Rp6427
ag2
(g6
S'&\xe1\xf9:'
p6428
tp6429
Rp6430
ag2
(g6
S'\x071\xb2;'
p6431
tp6432
Rp6433
ag2
(g6
S'q \x8b:'
p6434
tp6435
Rp6436
ag2
(g6
S'##\x80:'
p6437
tp6438
Rp6439
ag2
(g6
S'"\xe1\xb79'
p6440
tp6441
Rp6442
ag2
(g6
S'R\xf7\xda;'
p6443
tp6444
Rp6445
ag2
(g6
S'\x8e)\xbb:'
p6446
tp6447
Rp6448
ag2
(g6
S'\x97\xefM;'
p6449
tp6450
Rp6451
ag2
(g6
S"'\x0e\xbb;"
p6452
tp6453
Rp6454
ag2
(g6
S'\xed,\xf0;'
p6455
tp6456
Rp6457
ag2
(g6
S'\xd9\xdd\xd4;'
p6458
tp6459
Rp6460
ag2
(g6
S'X\x00\xf98'
p6461
tp6462
Rp6463
ag2
(g6
S'\x19\xd2r<'
p6464
tp6465
Rp6466
ag2
(g6
S'^\x0f)<'
p6467
tp6468
Rp6469
ag2
(g6
S'\xfeq\xb3;'
p6470
tp6471
Rp6472
ag2
(g6
S'\x90\xc3\xd0;'
p6473
tp6474
Rp6475
ag2
(g6
S'\x97[\x15<'
p6476
tp6477
Rp6478
ag2
(g6
S'\x9aG8;'
p6479
tp6480
Rp6481
ag2
(g6
S'4cZ;'
p6482
tp6483
Rp6484
ag2
(g6
S'\xe9\x0bJ<'
p6485
tp6486
Rp6487
ag2
(g6
S'\xf5\x0e\xec8'
p6488
tp6489
Rp6490
ag2
(g6
S'\x084\xec:'
p6491
tp6492
Rp6493
ag2
(g6
S'\xf8\xa0\xe3;'
p6494
tp6495
Rp6496
ag2
(g6
S'\xf2\xe1\x95:'
p6497
tp6498
Rp6499
ag2
(g6
S'\xffb\xb1;'
p6500
tp6501
Rp6502
ag2
(g6
S'\x9c\xe1\xde:'
p6503
tp6504
Rp6505
ag2
(g6
S'\x81\x9dK;'
p6506
tp6507
Rp6508
ag2
(g6
S'\x92\xd7\xe3:'
p6509
tp6510
Rp6511
ag2
(g6
S'a|\xb0;'
p6512
tp6513
Rp6514
ag2
(g6
S'bE\x89;'
p6515
tp6516
Rp6517
ag2
(g6
S'\xc0\xf9O<'
p6518
tp6519
Rp6520
ag2
(g6
S'@b!;'
p6521
tp6522
Rp6523
ag2
(g6
S'\xa0\x7f\xb4:'
p6524
tp6525
Rp6526
ag2
(g6
S'\xfd\xe6\xda;'
p6527
tp6528
Rp6529
ag2
(g6
S'\xac\xf0|;'
p6530
tp6531
Rp6532
ag2
(g6
S'\x16\xa7\x0b;'
p6533
tp6534
Rp6535
ag2
(g6
S'\x96\xfe\xd1:'
p6536
tp6537
Rp6538
ag2
(g6
S'\x0e\n\xde8'
p6539
tp6540
Rp6541
ag2
(g6
S'\x8dT4;'
p6542
tp6543
Rp6544
ag2
(g6
S'\xab\xf4f:'
p6545
tp6546
Rp6547
ag2
(g6
S'c\x9aL;'
p6548
tp6549
Rp6550
ag2
(g6
S'\x9eK\xed:'
p6551
tp6552
Rp6553
ag2
(g6
S'\x13\xc5Q;'
p6554
tp6555
Rp6556
ag2
(g6
S'9\x9a\xbb;'
p6557
tp6558
Rp6559
ag2
(g6
S'\r\x98r;'
p6560
tp6561
Rp6562
ag2
(g6
S'MPd;'
p6563
tp6564
Rp6565
ag2
(g6
S'\xd6\x04\x90;'
p6566
tp6567
Rp6568
ag2
(g6
S'\xcd:R;'
p6569
tp6570
Rp6571
ag2
(g6
S'V\xbc\x05<'
p6572
tp6573
Rp6574
ag2
(g6
S'uTB;'
p6575
tp6576
Rp6577
ag2
(g6
S'\x06\xe9\x1d;'
p6578
tp6579
Rp6580
ag2
(g6
S'i\x86\xf4:'
p6581
tp6582
Rp6583
ag2
(g6
S'\xf7\xe5y;'
p6584
tp6585
Rp6586
ag2
(g6
S'\xaa]\xb9;'
p6587
tp6588
Rp6589
ag2
(g6
S'\x06\x7fh;'
p6590
tp6591
Rp6592
ag2
(g6
S'\x9cbi;'
p6593
tp6594
Rp6595
ag2
(g6
S'L\x8aa;'
p6596
tp6597
Rp6598
ag2
(g6
S'/3^;'
p6599
tp6600
Rp6601
ag2
(g6
S'\xec\xebh;'
p6602
tp6603
Rp6604
ag2
(g6
S'\xe7\xbdg<'
p6605
tp6606
Rp6607
ag2
(g6
S'X\x82\x93;'
p6608
tp6609
Rp6610
ag2
(g6
S'\x93\xd1\x0e;'
p6611
tp6612
Rp6613
ag2
(g6
S'Jg\xef:'
p6614
tp6615
Rp6616
ag2
(g6
S'}\xfb\x19;'
p6617
tp6618
Rp6619
ag2
(g6
S'\x1bl\xbe;'
p6620
tp6621
Rp6622
ag2
(g6
S'XS\xe6;'
p6623
tp6624
Rp6625
ag2
(g6
S'b\xc47;'
p6626
tp6627
Rp6628
ag2
(g6
S'\x7fv\xcb:'
p6629
tp6630
Rp6631
ag2
(g6
S'4\x91\xee:'
p6632
tp6633
Rp6634
ag2
(g6
S'\xa0Q\x9e;'
p6635
tp6636
Rp6637
ag2
(g6
S'[~g<'
p6638
tp6639
Rp6640
ag2
(g6
S'\x02T\x11;'
p6641
tp6642
Rp6643
ag2
(g6
S'\xd5\xf6\xac:'
p6644
tp6645
Rp6646
ag2
(g6
S'\x96\xea!<'
p6647
tp6648
Rp6649
ag2
(g6
S'!oF;'
p6650
tp6651
Rp6652
ag2
(g6
S'\x8f\xaf\x06<'
p6653
tp6654
Rp6655
ag2
(g6
S'\xf0G\x89;'
p6656
tp6657
Rp6658
ag2
(g6
S'\x89\x98\x9a;'
p6659
tp6660
Rp6661
ag2
(g6
S'9\xa0y:'
p6662
tp6663
Rp6664
ag2
(g6
S'H/\x7f:'
p6665
tp6666
Rp6667
ag2
(g6
S'\xbd,\x86;'
p6668
tp6669
Rp6670
ag2
(g6
S'\x9e\x0f4;'
p6671
tp6672
Rp6673
ag2
(g6
S'\xccs\x17<'
p6674
tp6675
Rp6676
ag2
(g6
S'R\x89\xdc;'
p6677
tp6678
Rp6679
ag2
(g6
S'\x17\xc6I<'
p6680
tp6681
Rp6682
ag2
(g6
S'EEG<'
p6683
tp6684
Rp6685
ag2
(g6
S'?\t\x86;'
p6686
tp6687
Rp6688
ag2
(g6
S'A\xa44;'
p6689
tp6690
Rp6691
ag2
(g6
S'\x983\xf8:'
p6692
tp6693
Rp6694
ag2
(g6
S'\xbea\x96;'
p6695
tp6696
Rp6697
ag2
(g6
S'\xd2G\xe0:'
p6698
tp6699
Rp6700
ag2
(g6
S'GD\xe3:'
p6701
tp6702
Rp6703
ag2
(g6
S'\xe4\xf8\x8f:'
p6704
tp6705
Rp6706
ag2
(g6
S'@\xe0\x06<'
p6707
tp6708
Rp6709
ag2
(g6
S'\xe9\x84\x05:'
p6710
tp6711
Rp6712
ag2
(g6
S'\x12`\x96:'
p6713
tp6714
Rp6715
ag2
(g6
S'\x94\xef[:'
p6716
tp6717
Rp6718
ag2
(g6
S'\x85\x86\x8f;'
p6719
tp6720
Rp6721
ag2
(g6
S'\xb8^\xf5:'
p6722
tp6723
Rp6724
ag2
(g6
S'\xa4\xab\x8e;'
p6725
tp6726
Rp6727
ag2
(g6
S'\xd2bC<'
p6728
tp6729
Rp6730
ag2
(g6
S'\x08\xca?;'
p6731
tp6732
Rp6733
ag2
(g6
S'\xe5\xbf\x99:'
p6734
tp6735
Rp6736
ag2
(g6
S'\x92\xe5\xe1;'
p6737
tp6738
Rp6739
ag2
(g6
S'~\x19\xa6;'
p6740
tp6741
Rp6742
ag2
(g6
S'\x18e,;'
p6743
tp6744
Rp6745
ag2
(g6
S'\x08\x1b\xcb:'
p6746
tp6747
Rp6748
ag2
(g6
S'\x10\x85\x00:'
p6749
tp6750
Rp6751
ag2
(g6
S'\x05\xec\xa5;'
p6752
tp6753
Rp6754
ag2
(g6
S'`A\xbf<'
p6755
tp6756
Rp6757
ag2
(g6
S'9\xca};'
p6758
tp6759
Rp6760
ag2
(g6
S'q\xa1\x87:'
p6761
tp6762
Rp6763
ag2
(g6
S'{\xe1\xf9;'
p6764
tp6765
Rp6766
ag2
(g6
S'\x9eJA;'
p6767
tp6768
Rp6769
ag2
(g6
S'\xbdb\xbb;'
p6770
tp6771
Rp6772
ag2
(g6
S'5\x11\xc7;'
p6773
tp6774
Rp6775
ag2
(g6
S'\tv\xa1;'
p6776
tp6777
Rp6778
ag2
(g6
S'\xbd\x90\x15;'
p6779
tp6780
Rp6781
ag2
(g6
S'q\xed\x98:'
p6782
tp6783
Rp6784
ag2
(g6
S'\xc2\xd3\x8c;'
p6785
tp6786
Rp6787
ag2
(g6
S'k\x95Z;'
p6788
tp6789
Rp6790
ag2
(g6
S'R\x9e\xb3;'
p6791
tp6792
Rp6793
ag2
(g6
S'\xc5\xf8\x91;'
p6794
tp6795
Rp6796
ag2
(g6
S'\x962[:'
p6797
tp6798
Rp6799
ag2
(g6
S'\\R\x14;'
p6800
tp6801
Rp6802
ag2
(g6
S'\xb7\xb1\xd0;'
p6803
tp6804
Rp6805
ag2
(g6
S'\x0b6\x17<'
p6806
tp6807
Rp6808
ag2
(g6
S'\xce\xcd&;'
p6809
tp6810
Rp6811
ag2
(g6
S'\xe1 \n;'
p6812
tp6813
Rp6814
ag2
(g6
S'4\xa4\xfe:'
p6815
tp6816
Rp6817
ag2
(g6
S'\xc7#l<'
p6818
tp6819
Rp6820
ag2
(g6
S'\xdc/\x0c<'
p6821
tp6822
Rp6823
ag2
(g6
S'\xc3!\xcc;'
p6824
tp6825
Rp6826
ag2
(g6
S'a\x92\x07<'
p6827
tp6828
Rp6829
ag2
(g6
S'\x19\xda\xcd;'
p6830
tp6831
Rp6832
ag2
(g6
S'\x00\xa7z<'
p6833
tp6834
Rp6835
ag2
(g6
S'*\xf9\x98;'
p6836
tp6837
Rp6838
ag2
(g6
S'\xbe|P;'
p6839
tp6840
Rp6841
ag2
(g6
S'\xb0\x9c"<'
p6842
tp6843
Rp6844
ag2
(g6
S'\t\xe8o;'
p6845
tp6846
Rp6847
ag2
(g6
S'*0\x9d<'
p6848
tp6849
Rp6850
ag2
(g6
S'\x1fd\x04;'
p6851
tp6852
Rp6853
ag2
(g6
S'\xe0\x8f\xd5;'
p6854
tp6855
Rp6856
ag2
(g6
S'\xdd\xdfn;'
p6857
tp6858
Rp6859
ag2
(g6
S'\x00p\xea:'
p6860
tp6861
Rp6862
ag2
(g6
S'\x98T\xb8;'
p6863
tp6864
Rp6865
ag2
(g6
S'\x1f\x02\x1f;'
p6866
tp6867
Rp6868
ag2
(g6
S'\x8d\xe4\xc0;'
p6869
tp6870
Rp6871
ag2
(g6
S'D\x14\x81;'
p6872
tp6873
Rp6874
ag2
(g6
S'\x84\t.<'
p6875
tp6876
Rp6877
ag2
(g6
S'\x00}\xd9;'
p6878
tp6879
Rp6880
ag2
(g6
S'3\x04\x1e<'
p6881
tp6882
Rp6883
ag2
(g6
S'}6\xea;'
p6884
tp6885
Rp6886
ag2
(g6
S'\xf3\xbe\x0f<'
p6887
tp6888
Rp6889
ag2
(g6
S'\xb0\xb2^:'
p6890
tp6891
Rp6892
ag2
(g6
S'\x87\xd3\xe4;'
p6893
tp6894
Rp6895
ag2
(g6
S'E\x7f\xb9;'
p6896
tp6897
Rp6898
ag2
(g6
S'D\x1a\x95;'
p6899
tp6900
Rp6901
ag2
(g6
S'\xe9\x07B<'
p6902
tp6903
Rp6904
ag2
(g6
S'\x94@\x03<'
p6905
tp6906
Rp6907
ag2
(g6
S'\xd6p\x94;'
p6908
tp6909
Rp6910
ag2
(g6
S'\xf1P\xf2:'
p6911
tp6912
Rp6913
ag2
(g6
S'\x02\xd8\xfe:'
p6914
tp6915
Rp6916
ag2
(g6
S'k\xac\xde:'
p6917
tp6918
Rp6919
ag2
(g6
S'l5B;'
p6920
tp6921
Rp6922
ag2
(g6
S'`]\x1a<'
p6923
tp6924
Rp6925
ag2
(g6
S'\xf2\xca\x08;'
p6926
tp6927
Rp6928
ag2
(g6
S'\xa2MF<'
p6929
tp6930
Rp6931
ag2
(g6
S'\x93\xc6\x81;'
p6932
tp6933
Rp6934
ag2
(g6
S'I\xb7\x06<'
p6935
tp6936
Rp6937
ag2
(g6
S'\xdad\x08<'
p6938
tp6939
Rp6940
ag2
(g6
S'e\xde\n<'
p6941
tp6942
Rp6943
ag2
(g6
S'\xbb~ ;'
p6944
tp6945
Rp6946
ag2
(g6
S'P\x04);'
p6947
tp6948
Rp6949
ag2
(g6
S'\xf2\x88\x10;'
p6950
tp6951
Rp6952
ag2
(g6
S'\xfd\x08\xa9;'
p6953
tp6954
Rp6955
ag2
(g6
S'\xc7\xc6p<'
p6956
tp6957
Rp6958
ag2
(g6
S'\xa5\xf9$;'
p6959
tp6960
Rp6961
ag2
(g6
S'\xd0=\xb7:'
p6962
tp6963
Rp6964
ag2
(g6
S'&\xd1\xbb;'
p6965
tp6966
Rp6967
ag2
(g6
S'/+\x15;'
p6968
tp6969
Rp6970
ag2
(g6
S'\xaf\xef\x04;'
p6971
tp6972
Rp6973
ag2
(g6
S'\x84\xdc\xa3;'
p6974
tp6975
Rp6976
ag2
(g6
S'\x8c\xd7\x07<'
p6977
tp6978
Rp6979
ag2
(g6
S'q\xcb\x82;'
p6980
tp6981
Rp6982
ag2
(g6
S'\xda\x0e\xee;'
p6983
tp6984
Rp6985
ag2
(g6
S'\x1b\xb4\xbe9'
p6986
tp6987
Rp6988
ag2
(g6
S',\x98\xf7;'
p6989
tp6990
Rp6991
ag2
(g6
S'#\xe3\xff:'
p6992
tp6993
Rp6994
ag2
(g6
S'R9\x8c;'
p6995
tp6996
Rp6997
ag2
(g6
S'\x167\x05<'
p6998
tp6999
Rp7000
ag2
(g6
S'\xc1Xf:'
p7001
tp7002
Rp7003
ag2
(g6
S'\x0f\x1c\xde;'
p7004
tp7005
Rp7006
ag2
(g6
S'w\xf5\xdb:'
p7007
tp7008
Rp7009
ag2
(g6
S'!\n\x84;'
p7010
tp7011
Rp7012
ag2
(g6
S'\x031\xb0;'
p7013
tp7014
Rp7015
ag2
(g6
S'\x8cH\xb5<'
p7016
tp7017
Rp7018
ag2
(g6
S'\xff\x91\x99:'
p7019
tp7020
Rp7021
ag2
(g6
S'\\N\x00;'
p7022
tp7023
Rp7024
ag2
(g6
S'\xc0\x1c\x99;'
p7025
tp7026
Rp7027
ag2
(g6
S'\x84T,;'
p7028
tp7029
Rp7030
ag2
(g6
S'?\xb7\xe6:'
p7031
tp7032
Rp7033
ag2
(g6
S'\x00\xf7\x8f;'
p7034
tp7035
Rp7036
ag2
(g6
S'`7 <'
p7037
tp7038
Rp7039
ag2
(g6
S'\xddG\x01<'
p7040
tp7041
Rp7042
ag2
(g6
S'\x94\x8du;'
p7043
tp7044
Rp7045
ag2
(g6
S'\x1a\xa2\x12<'
p7046
tp7047
Rp7048
ag2
(g6
S'\x8a\xe9t;'
p7049
tp7050
Rp7051
ag2
(g6
S'v\xf2\x10;'
p7052
tp7053
Rp7054
ag2
(g6
S'\xf9\xc5\xc5;'
p7055
tp7056
Rp7057
ag2
(g6
S'\x7f9\x19<'
p7058
tp7059
Rp7060
ag2
(g6
S'\xc8\x08\xc3;'
p7061
tp7062
Rp7063
ag2
(g6
S'\xec\x9c);'
p7064
tp7065
Rp7066
ag2
(g6
S'\x13\xc7\xe99'
p7067
tp7068
Rp7069
ag2
(g6
S'\xfa]\x04;'
p7070
tp7071
Rp7072
ag2
(g6
S'\xe2\xa5Z;'
p7073
tp7074
Rp7075
ag2
(g6
S'\xbd\xbe\x03<'
p7076
tp7077
Rp7078
ag2
(g6
S'\xcc\xd3\xa5;'
p7079
tp7080
Rp7081
ag2
(g6
S'O\x97a:'
p7082
tp7083
Rp7084
ag2
(g6
S'S\x99o;'
p7085
tp7086
Rp7087
ag2
(g6
S'\xb5\x8a\xe3;'
p7088
tp7089
Rp7090
ag2
(g6
S'y<_<'
p7091
tp7092
Rp7093
ag2
(g6
S'\x00&\xc8;'
p7094
tp7095
Rp7096
ag2
(g6
S'8\x14\x99;'
p7097
tp7098
Rp7099
ag2
(g6
S'\xa4\x1c\x81;'
p7100
tp7101
Rp7102
ag2
(g6
S'\x16\x9f\x1d<'
p7103
tp7104
Rp7105
ag2
(g6
S'I\x1a\x1a<'
p7106
tp7107
Rp7108
ag2
(g6
S'\x9dr2;'
p7109
tp7110
Rp7111
ag2
(g6
S'\xe5\xd5\xc28'
p7112
tp7113
Rp7114
ag2
(g6
S'p>\x0b;'
p7115
tp7116
Rp7117
ag2
(g6
S'\x9f,\xa7;'
p7118
tp7119
Rp7120
ag2
(g6
S'\xa3\xd6\x97;'
p7121
tp7122
Rp7123
ag2
(g6
S'\xf9\xc3\xce8'
p7124
tp7125
Rp7126
ag2
(g6
S'0e\n;'
p7127
tp7128
Rp7129
ag2
(g6
S'\x02\x0c\xf6;'
p7130
tp7131
Rp7132
ag2
(g6
S'\xb7\xfd\x8b;'
p7133
tp7134
Rp7135
ag2
(g6
S'\xcf\xb3\x04;'
p7136
tp7137
Rp7138
ag2
(g6
S'B\x8aM;'
p7139
tp7140
Rp7141
ag2
(g6
S'\xb9\xcd\x97;'
p7142
tp7143
Rp7144
ag2
(g6
S'\xb5@\x87;'
p7145
tp7146
Rp7147
ag2
(g6
S'\x12%#;'
p7148
tp7149
Rp7150
ag2
(g6
S'4p <'
p7151
tp7152
Rp7153
ag2
(g6
S'R\xa7\x02<'
p7154
tp7155
Rp7156
ag2
(g6
S'\xa4(\x84;'
p7157
tp7158
Rp7159
ag2
(g6
S'\xee\xda\xba;'
p7160
tp7161
Rp7162
ag2
(g6
S"\xbf\xc7'<"
p7163
tp7164
Rp7165
ag2
(g6
S'\xd1\xcc\xbd;'
p7166
tp7167
Rp7168
ag2
(g6
S'\xd0\x08\xd1;'
p7169
tp7170
Rp7171
ag2
(g6
S'r\xc8\x16;'
p7172
tp7173
Rp7174
ag2
(g6
S'q\xeb\x1b<'
p7175
tp7176
Rp7177
ag2
(g6
S'Z\x90\xa99'
p7178
tp7179
Rp7180
ag2
(g6
S'\xae\x97\x04;'
p7181
tp7182
Rp7183
ag2
(g6
S'\x13\xcd\x8a:'
p7184
tp7185
Rp7186
ag2
(g6
S'$Dk;'
p7187
tp7188
Rp7189
ag2
(g6
S'Za8;'
p7190
tp7191
Rp7192
ag2
(g6
S'p\xbcd<'
p7193
tp7194
Rp7195
ag2
(g6
S'\xe0\xe8\x0c<'
p7196
tp7197
Rp7198
ag2
(g6
S'\x95\xfd\x93:'
p7199
tp7200
Rp7201
ag2
(g6
S'\xc8\xa6&;'
p7202
tp7203
Rp7204
ag2
(g6
S'\xa0\xe3\xe6:'
p7205
tp7206
Rp7207
ag2
(g6
S'\xb4\xe6\x19;'
p7208
tp7209
Rp7210
ag2
(g6
S'?$\xe3:'
p7211
tp7212
Rp7213
ag2
(g6
S"'\x1fq:"
p7214
tp7215
Rp7216
ag2
(g6
S'\xbc\x1dE;'
p7217
tp7218
Rp7219
ag2
(g6
S'\xde\x078;'
p7220
tp7221
Rp7222
ag2
(g6
S'\xfe\xe9\xc7:'
p7223
tp7224
Rp7225
ag2
(g6
S'\xa4V\xd1;'
p7226
tp7227
Rp7228
ag2
(g6
S'\xbd|H:'
p7229
tp7230
Rp7231
ag2
(g6
S'Z\xdf\x8b;'
p7232
tp7233
Rp7234
ag2
(g6
S'\xa3)\\;'
p7235
tp7236
Rp7237
ag2
(g6
S'\x82\r\n<'
p7238
tp7239
Rp7240
ag2
(g6
S'!o\xc6;'
p7241
tp7242
Rp7243
ag2
(g6
S'\x7f*\x10;'
p7244
tp7245
Rp7246
ag2
(g6
S'f\xe2\xbc:'
p7247
tp7248
Rp7249
ag2
(g6
S'\xa4\x1c\xe8;'
p7250
tp7251
Rp7252
ag2
(g6
S'\x90\xc9;;'
p7253
tp7254
Rp7255
ag2
(g6
S'\x94\xb8\xd4:'
p7256
tp7257
Rp7258
ag2
(g6
S'#5\x93:'
p7259
tp7260
Rp7261
ag2
(g6
S'u\xb2?;'
p7262
tp7263
Rp7264
ag2
(g6
S'\x92\x06\x8f;'
p7265
tp7266
Rp7267
ag2
(g6
S'\x9e\x16\x9c<'
p7268
tp7269
Rp7270
ag2
(g6
S'\x02]\x00<'
p7271
tp7272
Rp7273
ag2
(g6
S'\x02sS;'
p7274
tp7275
Rp7276
ag2
(g6
S'O\xed\x1a;'
p7277
tp7278
Rp7279
ag2
(g6
S'\r\x83\xbe;'
p7280
tp7281
Rp7282
ag2
(g6
S'\x82\xd9\x10;'
p7283
tp7284
Rp7285
ag2
(g6
S'\xd8\xfbA;'
p7286
tp7287
Rp7288
ag2
(g6
S'\xde\x9d|:'
p7289
tp7290
Rp7291
ag2
(g6
S'\x02.\x80;'
p7292
tp7293
Rp7294
ag2
(g6
S'\xd7\x8e2;'
p7295
tp7296
Rp7297
ag2
(g6
S'\xd9p\x8e;'
p7298
tp7299
Rp7300
ag2
(g6
S'&J\x00<'
p7301
tp7302
Rp7303
ag2
(g6
S'1\x11\xa0;'
p7304
tp7305
Rp7306
ag2
(g6
S'Q\xfa\xba;'
p7307
tp7308
Rp7309
ag2
(g6
S'Q\xe8\x03<'
p7310
tp7311
Rp7312
ag2
(g6
S'=\x96\x18;'
p7313
tp7314
Rp7315
ag2
(g6
S'\x03\xa7X;'
p7316
tp7317
Rp7318
ag2
(g6
S'\x9e\xee7<'
p7319
tp7320
Rp7321
ag2
(g6
S'\xac\xc0\x1a;'
p7322
tp7323
Rp7324
ag2
(g6
S'\x0b\xe3z;'
p7325
tp7326
Rp7327
ag2
(g6
S'\x97\x8eu<'
p7328
tp7329
Rp7330
ag2
(g6
S'\xd9Kr;'
p7331
tp7332
Rp7333
ag2
(g6
S'\xf2sI:'
p7334
tp7335
Rp7336
ag2
(g6
S'\x8d\xac\x8a;'
p7337
tp7338
Rp7339
ag2
(g6
S'7O\xa5;'
p7340
tp7341
Rp7342
ag2
(g6
S'\xfa\xd6\x07<'
p7343
tp7344
Rp7345
ag2
(g6
S'\x14Fm;'
p7346
tp7347
Rp7348
ag2
(g6
S'\xc0\x95\xde:'
p7349
tp7350
Rp7351
ag2
(g6
S'H\x8e\x91;'
p7352
tp7353
Rp7354
ag2
(g6
S'\xe9P\x0c:'
p7355
tp7356
Rp7357
ag2
(g6
S'}\xf7\xb0;'
p7358
tp7359
Rp7360
ag2
(g6
S'\xd0y\xf4:'
p7361
tp7362
Rp7363
ag2
(g6
S'\xadjY;'
p7364
tp7365
Rp7366
ag2
(g6
S'\x12\xd1\\:'
p7367
tp7368
Rp7369
ag2
(g6
S'h\x98j;'
p7370
tp7371
Rp7372
ag2
(g6
S'w\xa7F;'
p7373
tp7374
Rp7375
ag2
(g6
S'\xc0.\x8f;'
p7376
tp7377
Rp7378
ag2
(g6
S'\x9f\xd7\xe6;'
p7379
tp7380
Rp7381
ag2
(g6
S'\xf9}N<'
p7382
tp7383
Rp7384
ag2
(g6
S'\xef\x17\x91;'
p7385
tp7386
Rp7387
ag2
(g6
S'\x83\xb9\x04<'
p7388
tp7389
Rp7390
ag2
(g6
S'\x16\x1f\x9c;'
p7391
tp7392
Rp7393
ag2
(g6
S'\xfd*[;'
p7394
tp7395
Rp7396
ag2
(g6
S'\xff\x13\x01;'
p7397
tp7398
Rp7399
ag2
(g6
S'\x82.\x0e;'
p7400
tp7401
Rp7402
ag2
(g6
S'\xae;D<'
p7403
tp7404
Rp7405
ag2
(g6
S'\xeft\xc9:'
p7406
tp7407
Rp7408
ag2
(g6
S'\x08!H;'
p7409
tp7410
Rp7411
ag2
(g6
S'\xe6M};'
p7412
tp7413
Rp7414
ag2
(g6
S'Oi\xea:'
p7415
tp7416
Rp7417
ag2
(g6
S'\xe6$\xa1;'
p7418
tp7419
Rp7420
ag2
(g6
S'\xb5\xaf\xdb;'
p7421
tp7422
Rp7423
ag2
(g6
S'I\xa0i;'
p7424
tp7425
Rp7426
ag2
(g6
S'\xf6^\xb3;'
p7427
tp7428
Rp7429
ag2
(g6
S'\xf3\x06O;'
p7430
tp7431
Rp7432
ag2
(g6
S'\x9ed2<'
p7433
tp7434
Rp7435
ag2
(g6
S'\x987r;'
p7436
tp7437
Rp7438
ag2
(g6
S'\x0f\x96a<'
p7439
tp7440
Rp7441
ag2
(g6
S'\xbd\x13\x05;'
p7442
tp7443
Rp7444
ag2
(g6
S'mzZ;'
p7445
tp7446
Rp7447
ag2
(g6
S'\xdd#\x01;'
p7448
tp7449
Rp7450
ag2
(g6
S'7t2<'
p7451
tp7452
Rp7453
ag2
(g6
S'\xfd\xf2\x9e;'
p7454
tp7455
Rp7456
ag2
(g6
S'T\xc2\x9e;'
p7457
tp7458
Rp7459
ag2
(g6
S'\x029\x01<'
p7460
tp7461
Rp7462
ag2
(g6
S'\xa8\xa9&;'
p7463
tp7464
Rp7465
ag2
(g6
S'\xbb\xd6\x1f;'
p7466
tp7467
Rp7468
ag2
(g6
S'9\xc2B;'
p7469
tp7470
Rp7471
ag2
(g6
S'H\x17\x86;'
p7472
tp7473
Rp7474
ag2
(g6
S'zc\x91:'
p7475
tp7476
Rp7477
ag2
(g6
S'\x12,\xb9;'
p7478
tp7479
Rp7480
ag2
(g6
S'\rT><'
p7481
tp7482
Rp7483
ag2
(g6
S'v\xa7\xe6;'
p7484
tp7485
Rp7486
ag2
(g6
S'\xffQ\x11='
p7487
tp7488
Rp7489
ag2
(g6
S'|v\xbd:'
p7490
tp7491
Rp7492
ag2
(g6
S'\\\xb6\xc6:'
p7493
tp7494
Rp7495
ag2
(g6
S'\\\xa7\x90;'
p7496
tp7497
Rp7498
ag2
(g6
S'\xfe\x97\xaa;'
p7499
tp7500
Rp7501
ag2
(g6
S'{s\x80;'
p7502
tp7503
Rp7504
ag2
(g6
S'\x9b\xce\xa3;'
p7505
tp7506
Rp7507
ag2
(g6
S'f\x87F<'
p7508
tp7509
Rp7510
ag2
(g6
S'\xce\xfdw;'
p7511
tp7512
Rp7513
ag2
(g6
S'\xab\xb5%;'
p7514
tp7515
Rp7516
ag2
(g6
S'{\xb0E;'
p7517
tp7518
Rp7519
ag2
(g6
S'@\xf4\xf3:'
p7520
tp7521
Rp7522
ag2
(g6
S'j\xff\xba;'
p7523
tp7524
Rp7525
ag2
(g6
S'\x9d\x8aJ;'
p7526
tp7527
Rp7528
ag2
(g6
S'\xc7\x06\xca;'
p7529
tp7530
Rp7531
ag2
(g6
S'E]\x8a;'
p7532
tp7533
Rp7534
ag2
(g6
S'\xf5\x88\xbb;'
p7535
tp7536
Rp7537
ag2
(g6
S'\xc4T\xa4;'
p7538
tp7539
Rp7540
ag2
(g6
S'Z\xadQ<'
p7541
tp7542
Rp7543
ag2
(g6
S'\x16\xa2\xea;'
p7544
tp7545
Rp7546
ag2
(g6
S'\xe8\xf4\x1d;'
p7547
tp7548
Rp7549
ag2
(g6
S'\xaeI\x95:'
p7550
tp7551
Rp7552
ag2
(g6
S'9v\t;'
p7553
tp7554
Rp7555
ag2
(g6
S'p\xdb\xa1:'
p7556
tp7557
Rp7558
ag2
(g6
S'3\x07\x05<'
p7559
tp7560
Rp7561
ag2
(g6
S'\xfe\x9d\xd6;'
p7562
tp7563
Rp7564
ag2
(g6
S'\xee\x85\xc6;'
p7565
tp7566
Rp7567
ag2
(g6
S'U\xd9:;'
p7568
tp7569
Rp7570
ag2
(g6
S'\x8f^\xd5;'
p7571
tp7572
Rp7573
ag2
(g6
S'v\x96\xe3;'
p7574
tp7575
Rp7576
ag2
(g6
S'4\xab\x90<'
p7577
tp7578
Rp7579
ag2
(g6
S'\xb9\xecM;'
p7580
tp7581
Rp7582
ag2
(g6
S'\xf2\xab\x8f;'
p7583
tp7584
Rp7585
ag2
(g6
S'\xa8d\x969'
p7586
tp7587
Rp7588
ag2
(g6
S'Q\x927;'
p7589
tp7590
Rp7591
ag2
(g6
S'pHK:'
p7592
tp7593
Rp7594
ag2
(g6
S'\x9c\\\xcc:'
p7595
tp7596
Rp7597
ag2
(g6
S'p\xfd\x03<'
p7598
tp7599
Rp7600
ag2
(g6
S'7\x84v;'
p7601
tp7602
Rp7603
ag2
(g6
S'\x84\xfe\x18<'
p7604
tp7605
Rp7606
ag2
(g6
S'A\xe7Q;'
p7607
tp7608
Rp7609
ag2
(g6
S'E\x97\x14;'
p7610
tp7611
Rp7612
ag2
(g6
S'\xe0?\x0f<'
p7613
tp7614
Rp7615
ag2
(g6
S'\\c\xb6;'
p7616
tp7617
Rp7618
ag2
(g6
S'\x8c\xd1R;'
p7619
tp7620
Rp7621
ag2
(g6
S'\x02\xfeU;'
p7622
tp7623
Rp7624
ag2
(g6
S'yr`:'
p7625
tp7626
Rp7627
ag2
(g6
S'ry\xe0:'
p7628
tp7629
Rp7630
ag2
(g6
S'\xe7\xbe\x989'
p7631
tp7632
Rp7633
ag2
(g6
S'|\x0b\xeb:'
p7634
tp7635
Rp7636
ag2
(g6
S'\x83\x86\x19;'
p7637
tp7638
Rp7639
ag2
(g6
S'0\xe6\xbc;'
p7640
tp7641
Rp7642
ag2
(g6
S'\x14p\x86;'
p7643
tp7644
Rp7645
ag2
(g6
S'\xf5u\xc2;'
p7646
tp7647
Rp7648
ag2
(g6
S'\xffJ\xbe:'
p7649
tp7650
Rp7651
ag2
(g6
S'/\rj;'
p7652
tp7653
Rp7654
ag2
(g6
S'\x8f\xc6W;'
p7655
tp7656
Rp7657
ag2
(g6
S'\xde<\x1a<'
p7658
tp7659
Rp7660
ag2
(g6
S'\x8fn\xd9:'
p7661
tp7662
Rp7663
ag2
(g6
S'\x94\xa4m9'
p7664
tp7665
Rp7666
ag2
(g6
S'\x11\xa6\x94:'
p7667
tp7668
Rp7669
ag2
(g6
S'\x8f\x18P;'
p7670
tp7671
Rp7672
ag2
(g6
S'\xd7\xed\x1b<'
p7673
tp7674
Rp7675
ag2
(g6
S'\xe5\xd3\xe2:'
p7676
tp7677
Rp7678
ag2
(g6
S'*\\\x9e:'
p7679
tp7680
Rp7681
ag2
(g6
S'm\xc1\xd0;'
p7682
tp7683
Rp7684
ag2
(g6
S'M\xba\x80;'
p7685
tp7686
Rp7687
ag2
(g6
S'\xf04\x1a;'
p7688
tp7689
Rp7690
ag2
(g6
S';\xe0\xbf;'
p7691
tp7692
Rp7693
ag2
(g6
S'G?\x10<'
p7694
tp7695
Rp7696
ag2
(g6
S'\xc7\x06\xe7;'
p7697
tp7698
Rp7699
ag2
(g6
S'\x8e)\xc0;'
p7700
tp7701
Rp7702
ag2
(g6
S'\x8d\xb1[<'
p7703
tp7704
Rp7705
ag2
(g6
S'\xaf~\xe9;'
p7706
tp7707
Rp7708
ag2
(g6
S'\x85\x11\xbc;'
p7709
tp7710
Rp7711
ag2
(g6
S'(\xb5\xf1;'
p7712
tp7713
Rp7714
ag2
(g6
S'X\xe17;'
p7715
tp7716
Rp7717
ag2
(g6
S'8\xc2\x03;'
p7718
tp7719
Rp7720
ag2
(g6
S'Mf\xe8<'
p7721
tp7722
Rp7723
ag2
(g6
S'\x14>Q;'
p7724
tp7725
Rp7726
ag2
(g6
S'\xe77\xce:'
p7727
tp7728
Rp7729
ag2
(g6
S',\x15\xd5;'
p7730
tp7731
Rp7732
ag2
(g6
S'\xb8\xf9\x94:'
p7733
tp7734
Rp7735
ag2
(g6
S'\x07z\x0c<'
p7736
tp7737
Rp7738
ag2
(g6
S'\xab\ri;'
p7739
tp7740
Rp7741
ag2
(g6
S'\xf1\xa8\xbd;'
p7742
tp7743
Rp7744
ag2
(g6
S'9\r\x17;'
p7745
tp7746
Rp7747
ag2
(g6
S'\xbd\x1c&;'
p7748
tp7749
Rp7750
ag2
(g6
S'\xfd\x1e6;'
p7751
tp7752
Rp7753
ag2
(g6
S'\x19\x04,<'
p7754
tp7755
Rp7756
ag2
(g6
S'\\\x04U;'
p7757
tp7758
Rp7759
ag2
(g6
S'a\x96\x0b;'
p7760
tp7761
Rp7762
ag2
(g6
S'\x96\xb0\xa9;'
p7763
tp7764
Rp7765
ag2
(g6
S'\xd4\xf5g;'
p7766
tp7767
Rp7768
ag2
(g6
S"'\x8d\x83;"
p7769
tp7770
Rp7771
ag2
(g6
S'\xf1f;;'
p7772
tp7773
Rp7774
ag2
(g6
S'\x0ei\xbf;'
p7775
tp7776
Rp7777
ag2
(g6
S'\xd6\xae\x9b;'
p7778
tp7779
Rp7780
ag2
(g6
S'\x9a\xea\xff:'
p7781
tp7782
Rp7783
ag2
(g6
S'\x84T\xc7:'
p7784
tp7785
Rp7786
ag2
(g6
S'\xe6\xc5\x00<'
p7787
tp7788
Rp7789
ag2
(g6
S'T\xe6\x04;'
p7790
tp7791
Rp7792
ag2
(g6
S's\xef\xa6:'
p7793
tp7794
Rp7795
ag2
(g6
S'\xc5u\x07<'
p7796
tp7797
Rp7798
ag2
(g6
S'\xa5\x01\xc0:'
p7799
tp7800
Rp7801
ag2
(g6
S'\x11\xb1E<'
p7802
tp7803
Rp7804
ag2
(g6
S'a\xd5\xe3:'
p7805
tp7806
Rp7807
ag2
(g6
S'\xfd\x87\xe9;'
p7808
tp7809
Rp7810
ag2
(g6
S'C\x88\x90;'
p7811
tp7812
Rp7813
ag2
(g6
S'\x1f\xf8X;'
p7814
tp7815
Rp7816
ag2
(g6
S'\xa6\xbb\xbd;'
p7817
tp7818
Rp7819
ag2
(g6
S'\xb3\xa3^<'
p7820
tp7821
Rp7822
ag2
(g6
S'\x00\xac\xeb:'
p7823
tp7824
Rp7825
ag2
(g6
S'Vj\x1e;'
p7826
tp7827
Rp7828
ag2
(g6
S'# \x88;'
p7829
tp7830
Rp7831
ag2
(g6
S'L\xcf\x15<'
p7832
tp7833
Rp7834
ag2
(g6
S'\xa5\x8d4;'
p7835
tp7836
Rp7837
ag2
(g6
S'\xe1\n\x01;'
p7838
tp7839
Rp7840
ag2
(g6
S'\xfdm\x88;'
p7841
tp7842
Rp7843
ag2
(g6
S'\x0e4\xd5;'
p7844
tp7845
Rp7846
ag2
(g6
S'\x88h\x0c;'
p7847
tp7848
Rp7849
ag2
(g6
S'2x\x98;'
p7850
tp7851
Rp7852
ag2
(g6
S'\xb1\xab\xb0;'
p7853
tp7854
Rp7855
ag2
(g6
S'\xd0/\xe9;'
p7856
tp7857
Rp7858
ag2
(g6
S'\xc7\xe1\xe0;'
p7859
tp7860
Rp7861
ag2
(g6
S'\xb6\xe9[;'
p7862
tp7863
Rp7864
ag2
(g6
S'3\x9f\x13<'
p7865
tp7866
Rp7867
ag2
(g6
S'?r\xba;'
p7868
tp7869
Rp7870
ag2
(g6
S'{\xcd\x00<'
p7871
tp7872
Rp7873
ag2
(g6
S'\xaeu\xac;'
p7874
tp7875
Rp7876
ag2
(g6
S'\xe6\xf7\x8e;'
p7877
tp7878
Rp7879
ag2
(g6
S'\xbc\xe9\xa19'
p7880
tp7881
Rp7882
ag2
(g6
S'\xb6\x9eR<'
p7883
tp7884
Rp7885
ag2
(g6
S'\x1b\xaf\x03<'
p7886
tp7887
Rp7888
ag2
(g6
S'\xbb}\xae;'
p7889
tp7890
Rp7891
ag2
(g6
S'K\xfc@<'
p7892
tp7893
Rp7894
ag2
(g6
S'\xbb \xb0;'
p7895
tp7896
Rp7897
ag2
(g6
S'\xc6\x16\x0e<'
p7898
tp7899
Rp7900
ag2
(g6
S'y\xf3\xb2;'
p7901
tp7902
Rp7903
ag2
(g6
S'=-\xff;'
p7904
tp7905
Rp7906
ag2
(g6
S',\xb3\xab:'
p7907
tp7908
Rp7909
ag2
(g6
S'\xd17P;'
p7910
tp7911
Rp7912
ag2
(g6
S'.\x14C<'
p7913
tp7914
Rp7915
ag2
(g6
S'\x94\xfc\xa1;'
p7916
tp7917
Rp7918
ag2
(g6
S'i\x192;'
p7919
tp7920
Rp7921
ag2
(g6
S'\xe9C\xab;'
p7922
tp7923
Rp7924
ag2
(g6
S'\xc179<'
p7925
tp7926
Rp7927
ag2
(g6
S'\x07\x8c|;'
p7928
tp7929
Rp7930
ag2
(g6
S'\x8b\xc0Z<'
p7931
tp7932
Rp7933
ag2
(g6
S'\x1a\x82\xb9;'
p7934
tp7935
Rp7936
ag2
(g6
S'\xb7\xeb\xc5:'
p7937
tp7938
Rp7939
ag2
(g6
S'\xea\xa9\xce;'
p7940
tp7941
Rp7942
ag2
(g6
S'?N!;'
p7943
tp7944
Rp7945
ag2
(g6
S'|\x07\x1a<'
p7946
tp7947
Rp7948
ag2
(g6
S'\x81X\xcd;'
p7949
tp7950
Rp7951
ag2
(g6
S'\xd7o\xb5;'
p7952
tp7953
Rp7954
ag2
(g6
S'h\x10\x14;'
p7955
tp7956
Rp7957
ag2
(g6
S'\x02\xc0b:'
p7958
tp7959
Rp7960
ag2
(g6
S'=\x10\x84;'
p7961
tp7962
Rp7963
ag2
(g6
S']\x00\xd0;'
p7964
tp7965
Rp7966
ag2
(g6
S'`\x1f\x11;'
p7967
tp7968
Rp7969
ag2
(g6
S'\xe7\x9e\xaa;'
p7970
tp7971
Rp7972
ag2
(g6
S'w=2;'
p7973
tp7974
Rp7975
ag2
(g6
S'\xa2bJ9'
p7976
tp7977
Rp7978
ag2
(g6
S'x\xf6\x87;'
p7979
tp7980
Rp7981
ag2
(g6
S'a\x04\x08;'
p7982
tp7983
Rp7984
ag2
(g6
S'b\xe88<'
p7985
tp7986
Rp7987
ag2
(g6
S'k\xb2\xff:'
p7988
tp7989
Rp7990
ag2
(g6
S'\xbc\xcd\xe6;'
p7991
tp7992
Rp7993
ag2
(g6
S'\x83\xb5#;'
p7994
tp7995
Rp7996
ag2
(g6
S's\xe7\x16<'
p7997
tp7998
Rp7999
ag2
(g6
S'Am\x18;'
p8000
tp8001
Rp8002
ag2
(g6
S'+\xc0\x06;'
p8003
tp8004
Rp8005
ag2
(g6
S'p\x19\x88;'
p8006
tp8007
Rp8008
ag2
(g6
S'J$!;'
p8009
tp8010
Rp8011
ag2
(g6
S',V\xa1;'
p8012
tp8013
Rp8014
ag2
(g6
S'P2K9'
p8015
tp8016
Rp8017
ag2
(g6
S'\xc0\xd52<'
p8018
tp8019
Rp8020
ag2
(g6
S'\xaacz;'
p8021
tp8022
Rp8023
ag2
(g6
S'\x01*r:'
p8024
tp8025
Rp8026
ag2
(g6
S'y\x98\xdd:'
p8027
tp8028
Rp8029
ag2
(g6
S'\xa7d>;'
p8030
tp8031
Rp8032
ag2
(g6
S'\xe4t=;'
p8033
tp8034
Rp8035
ag2
(g6
S'\x9f*\xa6:'
p8036
tp8037
Rp8038
ag2
(g6
S'\xe5\xcb\xbb;'
p8039
tp8040
Rp8041
ag2
(g6
S'\xff\xac\xcc:'
p8042
tp8043
Rp8044
ag2
(g6
S'h\xa9R;'
p8045
tp8046
Rp8047
ag2
(g6
S'z\x89\xf2:'
p8048
tp8049
Rp8050
ag2
(g6
S'L\xe3\xbb;'
p8051
tp8052
Rp8053
ag2
(g6
S'?1\xee;'
p8054
tp8055
Rp8056
ag2
(g6
S'z\x96\x8d;'
p8057
tp8058
Rp8059
ag2
(g6
S'q\xf7\n;'
p8060
tp8061
Rp8062
ag2
(g6
S'8\x812;'
p8063
tp8064
Rp8065
ag2
(g6
S'\xc8\x80\xbb;'
p8066
tp8067
Rp8068
ag2
(g6
S'\x95\x8d\xaf;'
p8069
tp8070
Rp8071
ag2
(g6
S'ja\x8c:'
p8072
tp8073
Rp8074
ag2
(g6
S':\xa0\xb3:'
p8075
tp8076
Rp8077
ag2
(g6
S'\xc4\xa7\xcb;'
p8078
tp8079
Rp8080
ag2
(g6
S'\xb6\xae:;'
p8081
tp8082
Rp8083
ag2
(g6
S'5b?;'
p8084
tp8085
Rp8086
ag2
(g6
S':\x02o;'
p8087
tp8088
Rp8089
ag2
(g6
S'T\xd4C<'
p8090
tp8091
Rp8092
ag2
(g6
S'i\xc0,<'
p8093
tp8094
Rp8095
ag2
(g6
S'\x0b\xc4\x94:'
p8096
tp8097
Rp8098
ag2
(g6
S'\xab\x08\xa9:'
p8099
tp8100
Rp8101
ag2
(g6
S'\xa7\xe2\xa3;'
p8102
tp8103
Rp8104
ag2
(g6
S'\x8aM\x17<'
p8105
tp8106
Rp8107
ag2
(g6
S'y\xf4\x0c:'
p8108
tp8109
Rp8110
ag2
(g6
S'm\xe9\x18;'
p8111
tp8112
Rp8113
ag2
(g6
S'\xe8:\x06<'
p8114
tp8115
Rp8116
ag2
(g6
S'V,\x1c;'
p8117
tp8118
Rp8119
ag2
(g6
S'\xb7\xca\xd2:'
p8120
tp8121
Rp8122
ag2
(g6
S'\x9aKo<'
p8123
tp8124
Rp8125
ag2
(g6
S'HEF;'
p8126
tp8127
Rp8128
ag2
(g6
S'\x87\x88\x0b<'
p8129
tp8130
Rp8131
ag2
(g6
S'\xc9\xe4\x14;'
p8132
tp8133
Rp8134
ag2
(g6
S'\xc5\xf5\x0e<'
p8135
tp8136
Rp8137
ag2
(g6
S'\xa7}"<'
p8138
tp8139
Rp8140
ag2
(g6
S'\x81\x13e:'
p8141
tp8142
Rp8143
ag2
(g6
S'Z{J<'
p8144
tp8145
Rp8146
ag2
(g6
S'\xf9\xc2\xd6;'
p8147
tp8148
Rp8149
ag2
(g6
S'\x18\x0c\x82;'
p8150
tp8151
Rp8152
ag2
(g6
S':\xdb\xe6;'
p8153
tp8154
Rp8155
ag2
(g6
S'v\x8em;'
p8156
tp8157
Rp8158
ag2
(g6
S'J\xf3b;'
p8159
tp8160
Rp8161
ag2
(g6
S'\x1cg\x8b;'
p8162
tp8163
Rp8164
ag2
(g6
S'A7,<'
p8165
tp8166
Rp8167
ag2
(g6
S'\x9f\xb7Q<'
p8168
tp8169
Rp8170
ag2
(g6
S'k&(<'
p8171
tp8172
Rp8173
ag2
(g6
S')_\x13;'
p8174
tp8175
Rp8176
ag2
(g6
S'\xc3\x13b<'
p8177
tp8178
Rp8179
ag2
(g6
S'\xf0\x1dy;'
p8180
tp8181
Rp8182
ag2
(g6
S'\x17\x1a\x15;'
p8183
tp8184
Rp8185
ag2
(g6
S'\xb0\xda\x11;'
p8186
tp8187
Rp8188
ag2
(g6
S'\xe6\xb6*;'
p8189
tp8190
Rp8191
ag2
(g6
S'0x\xcc;'
p8192
tp8193
Rp8194
ag2
(g6
S'\x98\xc0\xaf:'
p8195
tp8196
Rp8197
ag2
(g6
S'\nW\xe2;'
p8198
tp8199
Rp8200
ag2
(g6
S'\x14U\x0c;'
p8201
tp8202
Rp8203
ag2
(g6
S'\x9bR\xda:'
p8204
tp8205
Rp8206
ag2
(g6
S'\x96\xf6\xb0;'
p8207
tp8208
Rp8209
ag2
(g6
S'\xe2Po;'
p8210
tp8211
Rp8212
ag2
(g6
S'#m\xf0;'
p8213
tp8214
Rp8215
ag2
(g6
S'.d\xa7;'
p8216
tp8217
Rp8218
ag2
(g6
S'\x1a+,<'
p8219
tp8220
Rp8221
ag2
(g6
S'LI\xfa;'
p8222
tp8223
Rp8224
ag2
(g6
S'H\xeb\xa6;'
p8225
tp8226
Rp8227
ag2
(g6
S'r\nH;'
p8228
tp8229
Rp8230
ag2
(g6
S'\x05\x8b_;'
p8231
tp8232
Rp8233
ag2
(g6
S'\xfaz\xd6;'
p8234
tp8235
Rp8236
ag2
(g6
S'\xe8b"='
p8237
tp8238
Rp8239
ag2
(g6
S'\x19\xaf@;'
p8240
tp8241
Rp8242
ag2
(g6
S'BR\xce;'
p8243
tp8244
Rp8245
ag2
(g6
S'\x89\x9b];'
p8246
tp8247
Rp8248
ag2
(g6
S'\xefE\xf6;'
p8249
tp8250
Rp8251
ag2
(g6
S'RQ\x1a;'
p8252
tp8253
Rp8254
ag2
(g6
S' %\x83;'
p8255
tp8256
Rp8257
ag2
(g6
S'\xc5]\xc7:'
p8258
tp8259
Rp8260
ag2
(g6
S'\xbe\x9a\x8d;'
p8261
tp8262
Rp8263
ag2
(g6
S'7\xecF;'
p8264
tp8265
Rp8266
ag2
(g6
S'{\xde\x9d;'
p8267
tp8268
Rp8269
ag2
(g6
S'\x9a\xc2\x04<'
p8270
tp8271
Rp8272
ag2
(g6
S'\xaa\xef\x19<'
p8273
tp8274
Rp8275
ag2
(g6
S'MP\x80<'
p8276
tp8277
Rp8278
ag2
(g6
S'+8\x94:'
p8279
tp8280
Rp8281
ag2
(g6
S'\x9c\x14\x01<'
p8282
tp8283
Rp8284
ag2
(g6
S'A\xb7>;'
p8285
tp8286
Rp8287
ag2
(g6
S'\xe4:\x99:'
p8288
tp8289
Rp8290
ag2
(g6
S';\xe3Q;'
p8291
tp8292
Rp8293
ag2
(g6
S'\x1e\x90\x11;'
p8294
tp8295
Rp8296
ag2
(g6
S'u\x7f <'
p8297
tp8298
Rp8299
ag2
(g6
S'`\xf1\x80;'
p8300
tp8301
Rp8302
ag2
(g6
S'\x1f\xc6\r<'
p8303
tp8304
Rp8305
ag2
(g6
S'\xab\x87\x199'
p8306
tp8307
Rp8308
ag2
(g6
S'`\xce\x19;'
p8309
tp8310
Rp8311
ag2
(g6
S',\xad$<'
p8312
tp8313
Rp8314
ag2
(g6
S'k.V:'
p8315
tp8316
Rp8317
ag2
(g6
S'\xfay\xc4;'
p8318
tp8319
Rp8320
ag2
(g6
S'\x17\xee\xf89'
p8321
tp8322
Rp8323
ag2
(g6
S',\xcf%;'
p8324
tp8325
Rp8326
ag2
(g6
S'\xd9\xde\x91;'
p8327
tp8328
Rp8329
ag2
(g6
S'\x84\xa41;'
p8330
tp8331
Rp8332
ag2
(g6
S'\xe9ln<'
p8333
tp8334
Rp8335
ag2
(g6
S'\x03d\x1a;'
p8336
tp8337
Rp8338
ag2
(g6
S'.3\x8b;'
p8339
tp8340
Rp8341
ag2
(g6
S'E/D;'
p8342
tp8343
Rp8344
ag2
(g6
S'\xd0\xcf\\;'
p8345
tp8346
Rp8347
ag2
(g6
S'\xede\x80:'
p8348
tp8349
Rp8350
ag2
(g6
S'\xef\xfa\xcf:'
p8351
tp8352
Rp8353
ag2
(g6
S']\x87\x15;'
p8354
tp8355
Rp8356
ag2
(g6
S'\xec\xe0\x02<'
p8357
tp8358
Rp8359
ag2
(g6
S'\x8cY\xa2;'
p8360
tp8361
Rp8362
ag2
(g6
S'C\xd3X;'
p8363
tp8364
Rp8365
ag2
(g6
S'\xe0a\x17;'
p8366
tp8367
Rp8368
ag2
(g6
S'\x1b\x9d\x80;'
p8369
tp8370
Rp8371
ag2
(g6
S' 0\x0c:'
p8372
tp8373
Rp8374
ag2
(g6
S'\xf1TA:'
p8375
tp8376
Rp8377
ag2
(g6
S'^\xe1-;'
p8378
tp8379
Rp8380
ag2
(g6
S'\xed\xbcy:'
p8381
tp8382
Rp8383
ag2
(g6
S'l\x9d\x8c;'
p8384
tp8385
Rp8386
ag2
(g6
S'\x9a\x90\xc3;'
p8387
tp8388
Rp8389
ag2
(g6
S'\xb79#;'
p8390
tp8391
Rp8392
ag2
(g6
S'vp\x94:'
p8393
tp8394
Rp8395
ag2
(g6
S'\xe5\x97\xb9:'
p8396
tp8397
Rp8398
ag2
(g6
S'\xe0\xf0p;'
p8399
tp8400
Rp8401
ag2
(g6
S'\r\x80\xd0;'
p8402
tp8403
Rp8404
ag2
(g6
S'G\x8e\x89;'
p8405
tp8406
Rp8407
ag2
(g6
S'\x85\x03|;'
p8408
tp8409
Rp8410
ag2
(g6
S'\xbf\x16f;'
p8411
tp8412
Rp8413
ag2
(g6
S'\xb1\xb4\xd6;'
p8414
tp8415
Rp8416
ag2
(g6
S'~Q\x01:'
p8417
tp8418
Rp8419
ag2
(g6
S'\xc5\x18\x89;'
p8420
tp8421
Rp8422
ag2
(g6
S'\x9d\xaa7<'
p8423
tp8424
Rp8425
ag2
(g6
S'l\x1d\xc9;'
p8426
tp8427
Rp8428
ag2
(g6
S'\xbd4\x82:'
p8429
tp8430
Rp8431
ag2
(g6
S'J\r7;'
p8432
tp8433
Rp8434
ag2
(g6
S'|\x81\xfa;'
p8435
tp8436
Rp8437
ag2
(g6
S'\xcc\xb5z:'
p8438
tp8439
Rp8440
ag2
(g6
S'd\xcam:'
p8441
tp8442
Rp8443
ag2
(g6
S'\xb94\x86<'
p8444
tp8445
Rp8446
ag2
(g6
S'3om:'
p8447
tp8448
Rp8449
ag2
(g6
S'J2\xc1;'
p8450
tp8451
Rp8452
ag2
(g6
S'5q\x99:'
p8453
tp8454
Rp8455
ag2
(g6
S'\x8b\xc07<'
p8456
tp8457
Rp8458
ag2
(g6
S'kh\xf98'
p8459
tp8460
Rp8461
ag2
(g6
S'\xabp\xb6;'
p8462
tp8463
Rp8464
ag2
(g6
S'CVj<'
p8465
tp8466
Rp8467
ag2
(g6
S'\x84\x1c\x07<'
p8468
tp8469
Rp8470
ag2
(g6
S'\xb3\xa4\x8e;'
p8471
tp8472
Rp8473
ag2
(g6
S'}U\xe8;'
p8474
tp8475
Rp8476
ag2
(g6
S'\xd7\r\xc0;'
p8477
tp8478
Rp8479
ag2
(g6
S'\x8a\x0b\xa0:'
p8480
tp8481
Rp8482
ag2
(g6
S'\xbc\xab\x95;'
p8483
tp8484
Rp8485
ag2
(g6
S'\xd5\xda\x87;'
p8486
tp8487
Rp8488
ag2
(g6
S'\x19\xfe\x11<'
p8489
tp8490
Rp8491
ag2
(g6
S'\x18\xc8@;'
p8492
tp8493
Rp8494
ag2
(g6
S'\xc6V4:'
p8495
tp8496
Rp8497
ag2
(g6
S'j>\x00<'
p8498
tp8499
Rp8500
ag2
(g6
S'$\xdd8;'
p8501
tp8502
Rp8503
ag2
(g6
S'1\xf3\xdb;'
p8504
tp8505
Rp8506
ag2
(g6
S'2\x91\xd49'
p8507
tp8508
Rp8509
ag2
(g6
S'\xd2F"<'
p8510
tp8511
Rp8512
ag2
(g6
S'`\xd2\xa8;'
p8513
tp8514
Rp8515
ag2
(g6
S':\nH;'
p8516
tp8517
Rp8518
ag2
(g6
S'\x11j\x9f:'
p8519
tp8520
Rp8521
ag2
(g6
S'.L\xf4;'
p8522
tp8523
Rp8524
ag2
(g6
S'\xfa\x96&;'
p8525
tp8526
Rp8527
ag2
(g6
S't\xc7\x85;'
p8528
tp8529
Rp8530
ag2
(g6
S'jN@<'
p8531
tp8532
Rp8533
ag2
(g6
S'\xc8\xb4\xec;'
p8534
tp8535
Rp8536
ag2
(g6
S'[\xebh;'
p8537
tp8538
Rp8539
ag2
(g6
S'\x89\xde\x1d:'
p8540
tp8541
Rp8542
ag2
(g6
S'\x95\xbf\xbf<'
p8543
tp8544
Rp8545
ag2
(g6
S'\xf1\xaaU;'
p8546
tp8547
Rp8548
ag2
(g6
S'\xbd\x9ce;'
p8549
tp8550
Rp8551
ag2
(g6
S'9\xe6\xba:'
p8552
tp8553
Rp8554
ag2
(g6
S'\xb8\x14\xb1;'
p8555
tp8556
Rp8557
ag2
(g6
S'\xadI\x92;'
p8558
tp8559
Rp8560
ag2
(g6
S'\x90A,;'
p8561
tp8562
Rp8563
ag2
(g6
S'{4\xb3;'
p8564
tp8565
Rp8566
ag2
(g6
S'\xf7\x9fJ;'
p8567
tp8568
Rp8569
ag2
(g6
S'\xbb\xca\xdd:'
p8570
tp8571
Rp8572
ag2
(g6
S'<\x05(;'
p8573
tp8574
Rp8575
ag2
(g6
S'\x9f\x1e/<'
p8576
tp8577
Rp8578
ag2
(g6
S'\xaeu\x1b<'
p8579
tp8580
Rp8581
ag2
(g6
S'\xea\xde\t<'
p8582
tp8583
Rp8584
ag2
(g6
S'\x94A\xbb;'
p8585
tp8586
Rp8587
ag2
(g6
S'b\xf4\xae;'
p8588
tp8589
Rp8590
ag2
(g6
S'AH)<'
p8591
tp8592
Rp8593
ag2
(g6
S'\xae\x89o<'
p8594
tp8595
Rp8596
ag2
(g6
S'\xae\x02t;'
p8597
tp8598
Rp8599
ag2
(g6
S'\xf5\xed\xbc:'
p8600
tp8601
Rp8602
ag2
(g6
S'\x9a6m;'
p8603
tp8604
Rp8605
ag2
(g6
S'\xab\xfc6;'
p8606
tp8607
Rp8608
ag2
(g6
S'\xe21Z<'
p8609
tp8610
Rp8611
ag2
(g6
S'\t\x16X;'
p8612
tp8613
Rp8614
ag2
(g6
S'(\x0b\xbc;'
p8615
tp8616
Rp8617
ag2
(g6
S'\x0f\x8bh;'
p8618
tp8619
Rp8620
ag2
(g6
S'^\xdb\xcd;'
p8621
tp8622
Rp8623
ag2
(g6
S'\xcc\xc8\x95;'
p8624
tp8625
Rp8626
ag2
(g6
S'1\xed\x03<'
p8627
tp8628
Rp8629
ag2
(g6
S'\x1f"f;'
p8630
tp8631
Rp8632
ag2
(g6
S'\xae\x84\x84;'
p8633
tp8634
Rp8635
ag2
(g6
S'c\x0b.;'
p8636
tp8637
Rp8638
ag2
(g6
S'J\xd3\x8d;'
p8639
tp8640
Rp8641
ag2
(g6
S')H\xbc;'
p8642
tp8643
Rp8644
ag2
(g6
S'\xd1\x11\xac;'
p8645
tp8646
Rp8647
ag2
(g6
S'c\xc8\xc2:'
p8648
tp8649
Rp8650
ag2
(g6
S'\xf1\x0eK;'
p8651
tp8652
Rp8653
ag2
(g6
S'\xc4*\xc2;'
p8654
tp8655
Rp8656
ag2
(g6
S"'\xc8\xbc;"
p8657
tp8658
Rp8659
ag2
(g6
S'h\xa3\xf9:'
p8660
tp8661
Rp8662
ag2
(g6
S'\x7f]\x87:'
p8663
tp8664
Rp8665
ag2
(g6
S'\xbd\xf7)<'
p8666
tp8667
Rp8668
ag2
(g6
S'\x8e\x82d;'
p8669
tp8670
Rp8671
ag2
(g6
S'\x9b\xde\xbd;'
p8672
tp8673
Rp8674
ag2
(g6
S'\xb93b;'
p8675
tp8676
Rp8677
ag2
(g6
S'?U\xde;'
p8678
tp8679
Rp8680
ag2
(g6
S'f\xa82;'
p8681
tp8682
Rp8683
ag2
(g6
S'\xa2\xa8\xa9;'
p8684
tp8685
Rp8686
ag2
(g6
S'\n\xdd\xc8:'
p8687
tp8688
Rp8689
ag2
(g6
S'3\xd0y:'
p8690
tp8691
Rp8692
ag2
(g6
S'=\x03\x0f<'
p8693
tp8694
Rp8695
ag2
(g6
S'\x94J\x8f:'
p8696
tp8697
Rp8698
ag2
(g6
S'A\x85\xd8:'
p8699
tp8700
Rp8701
ag2
(g6
S'\xe2s\x12;'
p8702
tp8703
Rp8704
ag2
(g6
S'\xfb{\xff9'
p8705
tp8706
Rp8707
ag2
(g6
S'w\x0e\x1a;'
p8708
tp8709
Rp8710
ag2
(g6
S'\xe5`:;'
p8711
tp8712
Rp8713
ag2
(g6
S'\x82\xcf\x04;'
p8714
tp8715
Rp8716
ag2
(g6
S'\xd2\xdb\xbc;'
p8717
tp8718
Rp8719
ag2
(g6
S'.O0<'
p8720
tp8721
Rp8722
ag2
(g6
S'\xc8\x0f1<'
p8723
tp8724
Rp8725
ag2
(g6
S'\x87\xa1?;'
p8726
tp8727
Rp8728
ag2
(g6
S'\xd5\x0f\xb8;'
p8729
tp8730
Rp8731
ag2
(g6
S'J,\x0f;'
p8732
tp8733
Rp8734
ag2
(g6
S'\x85\xd9{;'
p8735
tp8736
Rp8737
ag2
(g6
S':\xcb\xb0;'
p8738
tp8739
Rp8740
ag2
(g6
S'\xf1vm;'
p8741
tp8742
Rp8743
ag2
(g6
S'\xaf\x060;'
p8744
tp8745
Rp8746
ag2
(g6
S'[\x17y;'
p8747
tp8748
Rp8749
ag2
(g6
S"'\x00j;"
p8750
tp8751
Rp8752
ag2
(g6
S'#\xe3\xa1:'
p8753
tp8754
Rp8755
ag2
(g6
S'\xe0\xb3L<'
p8756
tp8757
Rp8758
ag2
(g6
S'G\x1a);'
p8759
tp8760
Rp8761
ag2
(g6
S'A\x17K;'
p8762
tp8763
Rp8764
ag2
(g6
S'V6 <'
p8765
tp8766
Rp8767
ag2
(g6
S'+\xbd\x8f<'
p8768
tp8769
Rp8770
ag2
(g6
S'8\xd9)<'
p8771
tp8772
Rp8773
ag2
(g6
S'\xd9\xfd\x02;'
p8774
tp8775
Rp8776
ag2
(g6
S'\xc1\xa0\xfc;'
p8777
tp8778
Rp8779
ag2
(g6
S'!\x84\xd9:'
p8780
tp8781
Rp8782
ag2
(g6
S'"2\x85;'
p8783
tp8784
Rp8785
ag2
(g6
S'\x9aeR;'
p8786
tp8787
Rp8788
ag2
(g6
S'\x0eB\xbd;'
p8789
tp8790
Rp8791
ag2
(g6
S'|\xad\x91;'
p8792
tp8793
Rp8794
ag2
(g6
S'\xe7\xd1t;'
p8795
tp8796
Rp8797
ag2
(g6
S'Xh\x81;'
p8798
tp8799
Rp8800
ag2
(g6
S'\xd6\xc8\x1d;'
p8801
tp8802
Rp8803
ag2
(g6
S'k\xa0\xdf:'
p8804
tp8805
Rp8806
ag2
(g6
S'\x9b\xde\x8a;'
p8807
tp8808
Rp8809
ag2
(g6
S'\x1a3^;'
p8810
tp8811
Rp8812
ag2
(g6
S'\xcf\x1c\xb6;'
p8813
tp8814
Rp8815
ag2
(g6
S's m;'
p8816
tp8817
Rp8818
ag2
(g6
S'\xea\x1c\x93;'
p8819
tp8820
Rp8821
ag2
(g6
S'AV\x13;'
p8822
tp8823
Rp8824
ag2
(g6
S'\xa0\x82\xe6:'
p8825
tp8826
Rp8827
ag2
(g6
S'\x1c\x9b\xf2:'
p8828
tp8829
Rp8830
ag2
(g6
S'\xbfm\xe0:'
p8831
tp8832
Rp8833
ag2
(g6
S'kU\xa1;'
p8834
tp8835
Rp8836
ag2
(g6
S'LU\x1b;'
p8837
tp8838
Rp8839
ag2
(g6
S'\x14Vw;'
p8840
tp8841
Rp8842
ag2
(g6
S'\t\xf4*<'
p8843
tp8844
Rp8845
ag2
(g6
S'\\\xdf\x92<'
p8846
tp8847
Rp8848
ag2
(g6
S'\xf2\x9b\x19:'
p8849
tp8850
Rp8851
ag2
(g6
S' f\x02;'
p8852
tp8853
Rp8854
ag2
(g6
S's\xb1\xc1;'
p8855
tp8856
Rp8857
ag2
(g6
S"\xd5'\xe1;"
p8858
tp8859
Rp8860
ag2
(g6
S'\x98\xf4K<'
p8861
tp8862
Rp8863
ag2
(g6
S'(\xd7\x06;'
p8864
tp8865
Rp8866
ag2
(g6
S'\xe7\xa2\x1c<'
p8867
tp8868
Rp8869
ag2
(g6
S'\xed\xca2;'
p8870
tp8871
Rp8872
ag2
(g6
S'h+\xa3:'
p8873
tp8874
Rp8875
ag2
(g6
S'\r\r\xa3;'
p8876
tp8877
Rp8878
ag2
(g6
S'\xb0\x15:;'
p8879
tp8880
Rp8881
ag2
(g6
S'\x17Z\x8e;'
p8882
tp8883
Rp8884
ag2
(g6
S'\xdc\x89\x96;'
p8885
tp8886
Rp8887
ag2
(g6
S'\xd2\xb9t;'
p8888
tp8889
Rp8890
ag2
(g6
S'c\xad\xb3;'
p8891
tp8892
Rp8893
ag2
(g6
S'S\xc5\xad:'
p8894
tp8895
Rp8896
ag2
(g6
S'\xa53\x8b;'
p8897
tp8898
Rp8899
ag2
(g6
S'@\x82\xa2;'
p8900
tp8901
Rp8902
ag2
(g6
S';&\xc5;'
p8903
tp8904
Rp8905
ag2
(g6
S'\xe10\x9b;'
p8906
tp8907
Rp8908
ag2
(g6
S'\xb4\xc0\xbd;'
p8909
tp8910
Rp8911
ag2
(g6
S'\xc9#I;'
p8912
tp8913
Rp8914
ag2
(g6
S'\x86"\xc7:'
p8915
tp8916
Rp8917
ag2
(g6
S'\xdd\xfaY:'
p8918
tp8919
Rp8920
ag2
(g6
S'=\xf2\xf38'
p8921
tp8922
Rp8923
ag2
(g6
S'\t\xc3\x07<'
p8924
tp8925
Rp8926
ag2
(g6
S'&r\xad;'
p8927
tp8928
Rp8929
ag2
(g6
S'c\xc3\xfb;'
p8930
tp8931
Rp8932
ag2
(g6
S'\tU\x01<'
p8933
tp8934
Rp8935
ag2
(g6
S'u3\x9f;'
p8936
tp8937
Rp8938
ag2
(g6
S'}o\xef;'
p8939
tp8940
Rp8941
ag2
(g6
S'Z\x97N;'
p8942
tp8943
Rp8944
ag2
(g6
S'\x85\x0bA;'
p8945
tp8946
Rp8947
ag2
(g6
S'\x86\x06\x89;'
p8948
tp8949
Rp8950
ag2
(g6
S'\x93E\xea;'
p8951
tp8952
Rp8953
ag2
(g6
S'.\x8a\x90:'
p8954
tp8955
Rp8956
ag2
(g6
S'\xb7?\x8b;'
p8957
tp8958
Rp8959
ag2
(g6
S'$\x08\xad:'
p8960
tp8961
Rp8962
ag2
(g6
S'\x06C\x9a;'
p8963
tp8964
Rp8965
ag2
(g6
S'\xe7\xc8\x07<'
p8966
tp8967
Rp8968
ag2
(g6
S'\x18\xf1\x94;'
p8969
tp8970
Rp8971
ag2
(g6
S'\xd2\x04\x9b;'
p8972
tp8973
Rp8974
ag2
(g6
S'u\xd4\xf1:'
p8975
tp8976
Rp8977
ag2
(g6
S'\xfem\x93:'
p8978
tp8979
Rp8980
ag2
(g6
S'w\xd9\xd2:'
p8981
tp8982
Rp8983
ag2
(g6
S'\x93\xcd\x8a;'
p8984
tp8985
Rp8986
ag2
(g6
S' \x89\xb69'
p8987
tp8988
Rp8989
ag2
(g6
S'Y\xa1\x01<'
p8990
tp8991
Rp8992
ag2
(g6
S"'dP<"
p8993
tp8994
Rp8995
ag2
(g6
S'\x8e\xb7/;'
p8996
tp8997
Rp8998
ag2
(g6
S'\x12\x9e|;'
p8999
tp9000
Rp9001
ag2
(g6
S'\x87)\xe0;'
p9002
tp9003
Rp9004
ag2
(g6
S'\xb6\x19);'
p9005
tp9006
Rp9007
ag2
(g6
S'\x9e\xfb\xee;'
p9008
tp9009
Rp9010
ag2
(g6
S'\xb5%,;'
p9011
tp9012
Rp9013
ag2
(g6
S'\x9e\xa7\xfb;'
p9014
tp9015
Rp9016
ag2
(g6
S'\xf0\x08\x8f;'
p9017
tp9018
Rp9019
ag2
(g6
S'\x8d\x18\xd8;'
p9020
tp9021
Rp9022
ag2
(g6
S'<1=<'
p9023
tp9024
Rp9025
ag2
(g6
S'&\xa1\x1d<'
p9026
tp9027
Rp9028
ag2
(g6
S';\xa6\x1f;'
p9029
tp9030
Rp9031
ag2
(g6
S'\xa0U\xe0:'
p9032
tp9033
Rp9034
ag2
(g6
S'j\x1d#;'
p9035
tp9036
Rp9037
ag2
(g6
S'\xb7I^;'
p9038
tp9039
Rp9040
ag2
(g6
S'\xfa\xcb\xf1;'
p9041
tp9042
Rp9043
ag2
(g6
S'\x18w\xf19'
p9044
tp9045
Rp9046
ag2
(g6
S'U\x17\xd3;'
p9047
tp9048
Rp9049
ag2
(g6
S'3\xd5u;'
p9050
tp9051
Rp9052
ag2
(g6
S'\xcb\x12\x1f;'
p9053
tp9054
Rp9055
ag2
(g6
S'\xd8\x1av;'
p9056
tp9057
Rp9058
ag2
(g6
S'\xd5\x0ev:'
p9059
tp9060
Rp9061
ag2
(g6
S'\xf8i\xb3;'
p9062
tp9063
Rp9064
ag2
(g6
S'^d\x88;'
p9065
tp9066
Rp9067
ag2
(g6
S'\x8a\xf07;'
p9068
tp9069
Rp9070
ag2
(g6
S'C\x87\xe7;'
p9071
tp9072
Rp9073
ag2
(g6
S'\xd9\x89\xc0<'
p9074
tp9075
Rp9076
ag2
(g6
S'\xe8q\x8d;'
p9077
tp9078
Rp9079
ag2
(g6
S'B\xb2\xcd9'
p9080
tp9081
Rp9082
ag2
(g6
S'\x9fzt<'
p9083
tp9084
Rp9085
ag2
(g6
S'c\xbd\xce:'
p9086
tp9087
Rp9088
ag2
(g6
S'\xad\r?<'
p9089
tp9090
Rp9091
ag2
(g6
S'k\xb5s;'
p9092
tp9093
Rp9094
ag2
(g6
S'5\x15]<'
p9095
tp9096
Rp9097
ag2
(g6
S'`\x85\x8c;'
p9098
tp9099
Rp9100
ag2
(g6
S'\xbc\xe3\xbc;'
p9101
tp9102
Rp9103
ag2
(g6
S';\\\xa8;'
p9104
tp9105
Rp9106
ag2
(g6
S'\xb8\xf8m<'
p9107
tp9108
Rp9109
ag2
(g6
S'\xfb\x18\x8f;'
p9110
tp9111
Rp9112
ag2
(g6
S'\xc3h\x05;'
p9113
tp9114
Rp9115
ag2
(g6
S'V\xc0\x8e;'
p9116
tp9117
Rp9118
ag2
(g6
S'C{B;'
p9119
tp9120
Rp9121
ag2
(g6
S'\x8a\xb9\x82;'
p9122
tp9123
Rp9124
ag2
(g6
S'\x87@E<'
p9125
tp9126
Rp9127
ag2
(g6
S'\xdf\xde\xc7;'
p9128
tp9129
Rp9130
ag2
(g6
S'\x0e.\x14<'
p9131
tp9132
Rp9133
ag2
(g6
S'\xdc\xcf\x91;'
p9134
tp9135
Rp9136
ag2
(g6
S'\xde\x03`:'
p9137
tp9138
Rp9139
ag2
(g6
S'\xc9a};'
p9140
tp9141
Rp9142
ag2
(g6
S'\x9c-*<'
p9143
tp9144
Rp9145
ag2
(g6
S'&Z\xe4;'
p9146
tp9147
Rp9148
ag2
(g6
S'\xa2.";'
p9149
tp9150
Rp9151
ag2
(g6
S'U0~;'
p9152
tp9153
Rp9154
ag2
(g6
S'\xaeA\t<'
p9155
tp9156
Rp9157
ag2
(g6
S'r\x01\xa5;'
p9158
tp9159
Rp9160
ag2
(g6
S'G\xa7\x92;'
p9161
tp9162
Rp9163
ag2
(g6
S'\xd8O\x8e;'
p9164
tp9165
Rp9166
ag2
(g6
S'\x0b\xcc\xcf;'
p9167
tp9168
Rp9169
ag2
(g6
S'\xe1S.<'
p9170
tp9171
Rp9172
ag2
(g6
S'I2I;'
p9173
tp9174
Rp9175
ag2
(g6
S"*'\x1e<"
p9176
tp9177
Rp9178
ag2
(g6
S'\x9fZ\x1b;'
p9179
tp9180
Rp9181
ag2
(g6
S'#\x1d?<'
p9182
tp9183
Rp9184
ag2
(g6
S'U\xdc2;'
p9185
tp9186
Rp9187
ag2
(g6
S'\xd4\x1a1;'
p9188
tp9189
Rp9190
ag2
(g6
S':\xaa\x85;'
p9191
tp9192
Rp9193
ag2
(g6
S'U\x85\x10<'
p9194
tp9195
Rp9196
ag2
(g6
S'\xd9\x1fE<'
p9197
tp9198
Rp9199
ag2
(g6
S'\x87p!<'
p9200
tp9201
Rp9202
ag2
(g6
S'\x8e\xc91;'
p9203
tp9204
Rp9205
ag2
(g6
S'\xb4h\xf1;'
p9206
tp9207
Rp9208
ag2
(g6
S'\xffD\x939'
p9209
tp9210
Rp9211
ag2
(g6
S'\xe9\x05\x1e<'
p9212
tp9213
Rp9214
ag2
(g6
S'\xea\x90~:'
p9215
tp9216
Rp9217
ag2
(g6
S'\xf1\xb5\x8b:'
p9218
tp9219
Rp9220
ag2
(g6
S'\x17R/;'
p9221
tp9222
Rp9223
ag2
(g6
S'\x9cuj;'
p9224
tp9225
Rp9226
aa(lp9227
g2
(g6
S'\xf2<\xe0;'
p9228
tp9229
Rp9230
ag2
(g6
S'D\x91\xe0;'
p9231
tp9232
Rp9233
ag2
(g6
S"&'*<"
p9234
tp9235
Rp9236
ag2
(g6
S',\xa5|;'
p9237
tp9238
Rp9239
ag2
(g6
S'\xa2\x0f\x03<'
p9240
tp9241
Rp9242
ag2
(g6
S'\xa6\x1c\xcd:'
p9243
tp9244
Rp9245
ag2
(g6
S'l\xba\x889'
p9246
tp9247
Rp9248
ag2
(g6
S'\xdd\xe0(<'
p9249
tp9250
Rp9251
ag2
(g6
S'\xba]\xd8:'
p9252
tp9253
Rp9254
ag2
(g6
S'o\x85\xe7;'
p9255
tp9256
Rp9257
ag2
(g6
S'?,\\;'
p9258
tp9259
Rp9260
ag2
(g6
S'\xc2\xff,<'
p9261
tp9262
Rp9263
ag2
(g6
S'\n\xf6a:'
p9264
tp9265
Rp9266
ag2
(g6
S'\xec\x93\x81;'
p9267
tp9268
Rp9269
ag2
(g6
S'\xfb\x96~;'
p9270
tp9271
Rp9272
ag2
(g6
S'\x87\x03\x94;'
p9273
tp9274
Rp9275
ag2
(g6
S'\xf4\x1a\xd5;'
p9276
tp9277
Rp9278
ag2
(g6
S'\x8c)\xe5:'
p9279
tp9280
Rp9281
ag2
(g6
S'\xb7\xaf\xcd;'
p9282
tp9283
Rp9284
ag2
(g6
S'\x1dcO;'
p9285
tp9286
Rp9287
ag2
(g6
S'\xd9\xd9\xcc;'
p9288
tp9289
Rp9290
ag2
(g6
S'\xcd\x1e\xe7;'
p9291
tp9292
Rp9293
ag2
(g6
S'M\xc62;'
p9294
tp9295
Rp9296
ag2
(g6
S'\xc9I:;'
p9297
tp9298
Rp9299
ag2
(g6
S'\x8f\xbf\xae;'
p9300
tp9301
Rp9302
ag2
(g6
S'\xa9\xdb><'
p9303
tp9304
Rp9305
ag2
(g6
S'\x91\x13\x17;'
p9306
tp9307
Rp9308
ag2
(g6
S'\xcd\xcfk<'
p9309
tp9310
Rp9311
ag2
(g6
S'{\xb3W;'
p9312
tp9313
Rp9314
ag2
(g6
S'\xdb\x8c3;'
p9315
tp9316
Rp9317
ag2
(g6
S'\xb7\xed\xe7;'
p9318
tp9319
Rp9320
ag2
(g6
S'\x8c\x08\x0c;'
p9321
tp9322
Rp9323
ag2
(g6
S'\x94\x8e\x06<'
p9324
tp9325
Rp9326
ag2
(g6
S'^\xba#;'
p9327
tp9328
Rp9329
ag2
(g6
S'\xaa\xd6\x88;'
p9330
tp9331
Rp9332
ag2
(g6
S'\xda\xd2\x1d<'
p9333
tp9334
Rp9335
ag2
(g6
S'0\xda\x93:'
p9336
tp9337
Rp9338
ag2
(g6
S'5\x059='
p9339
tp9340
Rp9341
ag2
(g6
S'\x06\xda\xaf9'
p9342
tp9343
Rp9344
ag2
(g6
S"'w\xad:"
p9345
tp9346
Rp9347
ag2
(g6
S'4u\x81;'
p9348
tp9349
Rp9350
ag2
(g6
S'\xb7\xe4S;'
p9351
tp9352
Rp9353
ag2
(g6
S'\xac\xc7\xad;'
p9354
tp9355
Rp9356
ag2
(g6
S'\x94\x88\xb7;'
p9357
tp9358
Rp9359
ag2
(g6
S'\xb5\x88\x9d;'
p9360
tp9361
Rp9362
ag2
(g6
S'\xb9\x00\x02='
p9363
tp9364
Rp9365
ag2
(g6
S'@\xfd$<'
p9366
tp9367
Rp9368
ag2
(g6
S'e\x14\x85;'
p9369
tp9370
Rp9371
ag2
(g6
S'\xfer\x80;'
p9372
tp9373
Rp9374
ag2
(g6
S'\x98\xfb\xc1;'
p9375
tp9376
Rp9377
ag2
(g6
S'mY_;'
p9378
tp9379
Rp9380
ag2
(g6
S'ExU:'
p9381
tp9382
Rp9383
ag2
(g6
S'\tfW;'
p9384
tp9385
Rp9386
ag2
(g6
S'\xde9\x82<'
p9387
tp9388
Rp9389
ag2
(g6
S'\x14d`<'
p9390
tp9391
Rp9392
ag2
(g6
S'\xb1\xd8\xb5;'
p9393
tp9394
Rp9395
ag2
(g6
S'w"\x98<'
p9396
tp9397
Rp9398
ag2
(g6
S'I\xdd#<'
p9399
tp9400
Rp9401
ag2
(g6
S'Q\x01V;'
p9402
tp9403
Rp9404
ag2
(g6
S'\x02\x0c\xac;'
p9405
tp9406
Rp9407
ag2
(g6
S'=\xad\x91;'
p9408
tp9409
Rp9410
ag2
(g6
S'**6<'
p9411
tp9412
Rp9413
ag2
(g6
S'\xf22{;'
p9414
tp9415
Rp9416
ag2
(g6
S'\x18L\x06;'
p9417
tp9418
Rp9419
ag2
(g6
S'\xec\xf1\xf1;'
p9420
tp9421
Rp9422
ag2
(g6
S'\xc9\xd1\xc1;'
p9423
tp9424
Rp9425
ag2
(g6
S'\x01\xe5\xcf;'
p9426
tp9427
Rp9428
ag2
(g6
S'\xf6\xbb\x94;'
p9429
tp9430
Rp9431
ag2
(g6
S'\xe1\xff\x9c;'
p9432
tp9433
Rp9434
ag2
(g6
S'\x83*\xb7;'
p9435
tp9436
Rp9437
ag2
(g6
S'\xf6n*<'
p9438
tp9439
Rp9440
ag2
(g6
S'$\x02\xe0;'
p9441
tp9442
Rp9443
ag2
(g6
S'\xd8?\x90;'
p9444
tp9445
Rp9446
ag2
(g6
S'\xcd\t\xf3;'
p9447
tp9448
Rp9449
ag2
(g6
S'7\x9a\xda;'
p9450
tp9451
Rp9452
ag2
(g6
S'7\xb0+;'
p9453
tp9454
Rp9455
ag2
(g6
S'\xe8pt;'
p9456
tp9457
Rp9458
ag2
(g6
S'\xbc\xff\x86;'
p9459
tp9460
Rp9461
ag2
(g6
S'\x9f\x87;;'
p9462
tp9463
Rp9464
ag2
(g6
S'\xab5\x10:'
p9465
tp9466
Rp9467
ag2
(g6
S'\xcb\x0f\x94;'
p9468
tp9469
Rp9470
ag2
(g6
S'\xe1Q\r<'
p9471
tp9472
Rp9473
ag2
(g6
S'~uq<'
p9474
tp9475
Rp9476
ag2
(g6
S'\x91E\x98;'
p9477
tp9478
Rp9479
ag2
(g6
S'\xf6\xe6F;'
p9480
tp9481
Rp9482
ag2
(g6
S'=f\xbb;'
p9483
tp9484
Rp9485
ag2
(g6
S'\xdc\xdcQ;'
p9486
tp9487
Rp9488
ag2
(g6
S'y;^<'
p9489
tp9490
Rp9491
ag2
(g6
S'\x08\xcb\x18<'
p9492
tp9493
Rp9494
ag2
(g6
S'\x88;\xd1;'
p9495
tp9496
Rp9497
ag2
(g6
S',r\xfe;'
p9498
tp9499
Rp9500
ag2
(g6
S'\x9f\xf4\xfd:'
p9501
tp9502
Rp9503
ag2
(g6
S'\xd8~\xb9;'
p9504
tp9505
Rp9506
ag2
(g6
S'\x0f`\x8b:'
p9507
tp9508
Rp9509
ag2
(g6
S'\xc9i\x7f:'
p9510
tp9511
Rp9512
ag2
(g6
S'0\xdd\xfc9'
p9513
tp9514
Rp9515
ag2
(g6
S'\xae\x92\xf7;'
p9516
tp9517
Rp9518
ag2
(g6
S'\xf1\xde\xbe:'
p9519
tp9520
Rp9521
ag2
(g6
S'h\x11d;'
p9522
tp9523
Rp9524
ag2
(g6
S'%"\xbe;'
p9525
tp9526
Rp9527
ag2
(g6
S'\xe3\xcd\x03<'
p9528
tp9529
Rp9530
ag2
(g6
S')Q\xe9;'
p9531
tp9532
Rp9533
ag2
(g6
S'G5\x029'
p9534
tp9535
Rp9536
ag2
(g6
S'H\xd8p<'
p9537
tp9538
Rp9539
ag2
(g6
S'g\xfd(<'
p9540
tp9541
Rp9542
ag2
(g6
S'\xe7t\xa9;'
p9543
tp9544
Rp9545
ag2
(g6
S'~\x89\xe4;'
p9546
tp9547
Rp9548
ag2
(g6
S'\x9f6\x15<'
p9549
tp9550
Rp9551
ag2
(g6
S' wG;'
p9552
tp9553
Rp9554
ag2
(g6
S'\x07`\x80;'
p9555
tp9556
Rp9557
ag2
(g6
S'd\x90C<'
p9558
tp9559
Rp9560
ag2
(g6
S'\xd5\x19\xf88'
p9561
tp9562
Rp9563
ag2
(g6
S'3/\xd8:'
p9564
tp9565
Rp9566
ag2
(g6
S'\xd4\xa4\xe2;'
p9567
tp9568
Rp9569
ag2
(g6
S'T\xc5\xaf:'
p9570
tp9571
Rp9572
ag2
(g6
S'\xb7\x16\xca;'
p9573
tp9574
Rp9575
ag2
(g6
S'\xb5\x82\xdc:'
p9576
tp9577
Rp9578
ag2
(g6
S'\xcf\xcbL;'
p9579
tp9580
Rp9581
ag2
(g6
S'K\x00\xe6:'
p9582
tp9583
Rp9584
ag2
(g6
S'$4\xc7;'
p9585
tp9586
Rp9587
ag2
(g6
S'\xd2\xb1\x97;'
p9588
tp9589
Rp9590
ag2
(g6
S'\xa9\x86><'
p9591
tp9592
Rp9593
ag2
(g6
S'\xc9|%;'
p9594
tp9595
Rp9596
ag2
(g6
S't\xa3\xbc:'
p9597
tp9598
Rp9599
ag2
(g6
S'\xbc\xd2\xe7;'
p9600
tp9601
Rp9602
ag2
(g6
S'\xe7\x01\x8f;'
p9603
tp9604
Rp9605
ag2
(g6
S'\xd942;'
p9606
tp9607
Rp9608
ag2
(g6
S'fe\xfc:'
p9609
tp9610
Rp9611
ag2
(g6
S'}\xa4\xe78'
p9612
tp9613
Rp9614
ag2
(g6
S'\xf7@E;'
p9615
tp9616
Rp9617
ag2
(g6
S'MFR:'
p9618
tp9619
Rp9620
ag2
(g6
S'\x91i];'
p9621
tp9622
Rp9623
ag2
(g6
S'\x1bL\xe5:'
p9624
tp9625
Rp9626
ag2
(g6
S'\x16!L;'
p9627
tp9628
Rp9629
ag2
(g6
S'\xb0\xb9\xc4;'
p9630
tp9631
Rp9632
ag2
(g6
S'\xa4\xe7y;'
p9633
tp9634
Rp9635
ag2
(g6
S'3Ms;'
p9636
tp9637
Rp9638
ag2
(g6
S'\xba\xbf\xa0;'
p9639
tp9640
Rp9641
ag2
(g6
S'f\x83r;'
p9642
tp9643
Rp9644
ag2
(g6
S'\x8f\x0c\x1e<'
p9645
tp9646
Rp9647
ag2
(g6
S'\xee\x0eQ;'
p9648
tp9649
Rp9650
ag2
(g6
S'\x0e\xb3\x1e;'
p9651
tp9652
Rp9653
ag2
(g6
S'{<\x04;'
p9654
tp9655
Rp9656
ag2
(g6
S'\xb3\x12\x82;'
p9657
tp9658
Rp9659
ag2
(g6
S'=\xf3\xc4;'
p9660
tp9661
Rp9662
ag2
(g6
S'`w\xae;'
p9663
tp9664
Rp9665
ag2
(g6
S'\x02Tw;'
p9666
tp9667
Rp9668
ag2
(g6
S'\x18~`;'
p9669
tp9670
Rp9671
ag2
(g6
S'jNh;'
p9672
tp9673
Rp9674
ag2
(g6
S'\xc9Fp;'
p9675
tp9676
Rp9677
ag2
(g6
S'Z\x13f<'
p9678
tp9679
Rp9680
ag2
(g6
S'*\xd5\x85;'
p9681
tp9682
Rp9683
ag2
(g6
S'\xb3)\x18;'
p9684
tp9685
Rp9686
ag2
(g6
S' @\x08;'
p9687
tp9688
Rp9689
ag2
(g6
S'k\xdc&;'
p9690
tp9691
Rp9692
ag2
(g6
S'"\xb7\xf9;'
p9693
tp9694
Rp9695
ag2
(g6
S'&\x18\xf0;'
p9696
tp9697
Rp9698
ag2
(g6
S'\x89\xc6N;'
p9699
tp9700
Rp9701
ag2
(g6
S'c\x10\xdf:'
p9702
tp9703
Rp9704
ag2
(g6
S'\xf6\xc9\x0b;'
p9705
tp9706
Rp9707
ag2
(g6
S'\xdd\xa6\xbc;'
p9708
tp9709
Rp9710
ag2
(g6
S'\xc6\x17p<'
p9711
tp9712
Rp9713
ag2
(g6
S'\xcfZ\x13;'
p9714
tp9715
Rp9716
ag2
(g6
S'C\xbd\xae:'
p9717
tp9718
Rp9719
ag2
(g6
S'\xd50#<'
p9720
tp9721
Rp9722
ag2
(g6
S'\x9a\x9aY;'
p9723
tp9724
Rp9725
ag2
(g6
S'\x7f\xe0\t<'
p9726
tp9727
Rp9728
ag2
(g6
S'\xe0\xbd\x8d;'
p9729
tp9730
Rp9731
ag2
(g6
S'\x14\xb5\x9b;'
p9732
tp9733
Rp9734
ag2
(g6
S'\x13w\x90:'
p9735
tp9736
Rp9737
ag2
(g6
S'K\xf9|:'
p9738
tp9739
Rp9740
ag2
(g6
S'\xc9R\x82;'
p9741
tp9742
Rp9743
ag2
(g6
S'\x82\xba/;'
p9744
tp9745
Rp9746
ag2
(g6
S'\xf3[\x16<'
p9747
tp9748
Rp9749
ag2
(g6
S'Wp\xd6;'
p9750
tp9751
Rp9752
ag2
(g6
S'\xf3\x1bS<'
p9753
tp9754
Rp9755
ag2
(g6
S'"^X<'
p9756
tp9757
Rp9758
ag2
(g6
S'\x87t\xa2;'
p9759
tp9760
Rp9761
ag2
(g6
S'~\x1c4;'
p9762
tp9763
Rp9764
ag2
(g6
S'\xf2\xd9\xf4:'
p9765
tp9766
Rp9767
ag2
(g6
S'w\x88\xaa;'
p9768
tp9769
Rp9770
ag2
(g6
S'\xb3\xff\x01;'
p9771
tp9772
Rp9773
ag2
(g6
S'd\xbe\x01;'
p9774
tp9775
Rp9776
ag2
(g6
S'O\x83\x9b:'
p9777
tp9778
Rp9779
ag2
(g6
S'5\xab\x14<'
p9780
tp9781
Rp9782
ag2
(g6
S'\r\xbb\t:'
p9783
tp9784
Rp9785
ag2
(g6
S'\xfdb\x9c:'
p9786
tp9787
Rp9788
ag2
(g6
S'\xb3\xaam:'
p9789
tp9790
Rp9791
ag2
(g6
S'\xf6\x06\x8f;'
p9792
tp9793
Rp9794
ag2
(g6
S'\x96\xea\xf1:'
p9795
tp9796
Rp9797
ag2
(g6
S'\xd7\x8a\x95;'
p9798
tp9799
Rp9800
ag2
(g6
S'\x9a\xdcM<'
p9801
tp9802
Rp9803
ag2
(g6
S'\xd9\x94G;'
p9804
tp9805
Rp9806
ag2
(g6
S'Y\xe1\xb6:'
p9807
tp9808
Rp9809
ag2
(g6
S'\xbc\xfd\xe9;'
p9810
tp9811
Rp9812
ag2
(g6
S'lM\xae;'
p9813
tp9814
Rp9815
ag2
(g6
S'\xea(/;'
p9816
tp9817
Rp9818
ag2
(g6
S'`D\xda:'
p9819
tp9820
Rp9821
ag2
(g6
S'?\xdf\x16:'
p9822
tp9823
Rp9824
ag2
(g6
S'\xc5r\xb0;'
p9825
tp9826
Rp9827
ag2
(g6
S'lu\xbc<'
p9828
tp9829
Rp9830
ag2
(g6
S'\xec7r;'
p9831
tp9832
Rp9833
ag2
(g6
S'\xecR\x8b:'
p9834
tp9835
Rp9836
ag2
(g6
S'\xe0\xf6\xfc;'
p9837
tp9838
Rp9839
ag2
(g6
S'8\x0fK;'
p9840
tp9841
Rp9842
ag2
(g6
S')|\xca;'
p9843
tp9844
Rp9845
ag2
(g6
S'\xde\xc5\xdd;'
p9846
tp9847
Rp9848
ag2
(g6
S'[\xc8\x9b;'
p9849
tp9850
Rp9851
ag2
(g6
S'\x02&\x14;'
p9852
tp9853
Rp9854
ag2
(g6
S'\xb3\x93\x98:'
p9855
tp9856
Rp9857
ag2
(g6
S'\xd4\xf6\xab;'
p9858
tp9859
Rp9860
ag2
(g6
S'0Ac;'
p9861
tp9862
Rp9863
ag2
(g6
S'h=\xb0;'
p9864
tp9865
Rp9866
ag2
(g6
S'y\xdc\x96;'
p9867
tp9868
Rp9869
ag2
(g6
S'=\xb3Y:'
p9870
tp9871
Rp9872
ag2
(g6
S'\xba\xc3\t;'
p9873
tp9874
Rp9875
ag2
(g6
S'S\xec\xcd;'
p9876
tp9877
Rp9878
ag2
(g6
S'\xf3X$<'
p9879
tp9880
Rp9881
ag2
(g6
S'\xb5\xaa&;'
p9882
tp9883
Rp9884
ag2
(g6
S'\x02\xa0\x1d;'
p9885
tp9886
Rp9887
ag2
(g6
S'\xd7\xe0\xfb:'
p9888
tp9889
Rp9890
ag2
(g6
S'\xfb+n<'
p9891
tp9892
Rp9893
ag2
(g6
S'\xe1C\x07<'
p9894
tp9895
Rp9896
ag2
(g6
S'\x82\xfb\xea;'
p9897
tp9898
Rp9899
ag2
(g6
S'\x1f\xe0\x02<'
p9900
tp9901
Rp9902
ag2
(g6
S'0\x8a\xc4;'
p9903
tp9904
Rp9905
ag2
(g6
S'\xef\x8d}<'
p9906
tp9907
Rp9908
ag2
(g6
S'\xbe\xaf\xa6;'
p9909
tp9910
Rp9911
ag2
(g6
S'\xf9Lq;'
p9912
tp9913
Rp9914
ag2
(g6
S'\x8a\x80\x1e<'
p9915
tp9916
Rp9917
ag2
(g6
S'\xc3\xa7\x9c;'
p9918
tp9919
Rp9920
ag2
(g6
S'\xcdY\xa7<'
p9921
tp9922
Rp9923
ag2
(g6
S'\x12\x12\x00;'
p9924
tp9925
Rp9926
ag2
(g6
S'\x8fD\xe3;'
p9927
tp9928
Rp9929
ag2
(g6
S'\x9d\xe0f;'
p9930
tp9931
Rp9932
ag2
(g6
S'jC\x00;'
p9933
tp9934
Rp9935
ag2
(g6
S'f(\xbd;'
p9936
tp9937
Rp9938
ag2
(g6
S'\xc6\xec\x18;'
p9939
tp9940
Rp9941
ag2
(g6
S'\xbdW\xc6;'
p9942
tp9943
Rp9944
ag2
(g6
S'\xbf\xc0w;'
p9945
tp9946
Rp9947
ag2
(g6
S'\xcf\xcc1<'
p9948
tp9949
Rp9950
ag2
(g6
S'\x96l\xfa;'
p9951
tp9952
Rp9953
ag2
(g6
S'\x1f\xb1(<'
p9954
tp9955
Rp9956
ag2
(g6
S'r\xe1\x0f<'
p9957
tp9958
Rp9959
ag2
(g6
S'$\xa2\x12<'
p9960
tp9961
Rp9962
ag2
(g6
S'\xae\xf6`:'
p9963
tp9964
Rp9965
ag2
(g6
S'\xe8\xc5\xe9;'
p9966
tp9967
Rp9968
ag2
(g6
S'\x94C\xbe;'
p9969
tp9970
Rp9971
ag2
(g6
S'#?\xa5;'
p9972
tp9973
Rp9974
ag2
(g6
S'.?C<'
p9975
tp9976
Rp9977
ag2
(g6
S'\x8f#\xf3;'
p9978
tp9979
Rp9980
ag2
(g6
S'"\'\xa2;'
p9981
tp9982
Rp9983
ag2
(g6
S'\xc9\x06\xf3:'
p9984
tp9985
Rp9986
ag2
(g6
S'c\xb8\r;'
p9987
tp9988
Rp9989
ag2
(g6
S'\xbc\xf8\xe6:'
p9990
tp9991
Rp9992
ag2
(g6
S'\x93\x08J;'
p9993
tp9994
Rp9995
ag2
(g6
S'\x02*\x1b<'
p9996
tp9997
Rp9998
ag2
(g6
S'D\xcc\x1e;'
p9999
tp10000
Rp10001
ag2
(g6
S'\xbd\xac5<'
p10002
tp10003
Rp10004
ag2
(g6
S'\xfa\\\x94;'
p10005
tp10006
Rp10007
ag2
(g6
S'\x8f9\x14<'
p10008
tp10009
Rp10010
ag2
(g6
S'\x13\x03\x13<'
p10011
tp10012
Rp10013
ag2
(g6
S'\x1a%\x1a<'
p10014
tp10015
Rp10016
ag2
(g6
S'W\x18!;'
p10017
tp10018
Rp10019
ag2
(g6
S'\xc5M0;'
p10020
tp10021
Rp10022
ag2
(g6
S'\x9a\xadE;'
p10023
tp10024
Rp10025
ag2
(g6
S'\x0b\x84\xa9;'
p10026
tp10027
Rp10028
ag2
(g6
S'&\x1ds<'
p10029
tp10030
Rp10031
ag2
(g6
S'\xec\xf7!;'
p10032
tp10033
Rp10034
ag2
(g6
S'\x03\x02\xba:'
p10035
tp10036
Rp10037
ag2
(g6
S'\xf2?\xbe;'
p10038
tp10039
Rp10040
ag2
(g6
S'\xa0\x02\x14;'
p10041
tp10042
Rp10043
ag2
(g6
S'/\x8f-;'
p10044
tp10045
Rp10046
ag2
(g6
S'\xcdO\xdb;'
p10047
tp10048
Rp10049
ag2
(g6
S'[m\r<'
p10050
tp10051
Rp10052
ag2
(g6
S'{[\x82;'
p10053
tp10054
Rp10055
ag2
(g6
S'`\x14\xed;'
p10056
tp10057
Rp10058
ag2
(g6
S'f!\xcd9'
p10059
tp10060
Rp10061
ag2
(g6
S'\xce\xbd\x03<'
p10062
tp10063
Rp10064
ag2
(g6
S'\xfd\xde\x0f;'
p10065
tp10066
Rp10067
ag2
(g6
S'\xf1\xb7\x93;'
p10068
tp10069
Rp10070
ag2
(g6
S'\x0e\xa5\x07<'
p10071
tp10072
Rp10073
ag2
(g6
S'\x1b\xc8~:'
p10074
tp10075
Rp10076
ag2
(g6
S'v\xd4\xd8;'
p10077
tp10078
Rp10079
ag2
(g6
S'm\xf9\xf5:'
p10080
tp10081
Rp10082
ag2
(g6
S'|*\x84;'
p10083
tp10084
Rp10085
ag2
(g6
S'\x1d1\xbf;'
p10086
tp10087
Rp10088
ag2
(g6
S'\x9e\xbe\xb3<'
p10089
tp10090
Rp10091
ag2
(g6
S'\xa5\xad\x98:'
p10092
tp10093
Rp10094
ag2
(g6
S'\x93\xe6\x07;'
p10095
tp10096
Rp10097
ag2
(g6
S'\xde\xd7\xcc;'
p10098
tp10099
Rp10100
ag2
(g6
S'!\xde:;'
p10101
tp10102
Rp10103
ag2
(g6
S'YW\xf3:'
p10104
tp10105
Rp10106
ag2
(g6
S'\t*\x8e;'
p10107
tp10108
Rp10109
ag2
(g6
S'=\x15*<'
p10110
tp10111
Rp10112
ag2
(g6
S'\x96\x92\x0f<'
p10113
tp10114
Rp10115
ag2
(g6
S'\x14\xa7\x7f;'
p10116
tp10117
Rp10118
ag2
(g6
S'\x8f}\x10<'
p10119
tp10120
Rp10121
ag2
(g6
S' 0x;'
p10122
tp10123
Rp10124
ag2
(g6
S'\xabc\x0f;'
p10125
tp10126
Rp10127
ag2
(g6
S'\xe8\x90\xdd;'
p10128
tp10129
Rp10130
ag2
(g6
S'3\x8e\x1b<'
p10131
tp10132
Rp10133
ag2
(g6
S'\xe0\x89\xcf;'
p10134
tp10135
Rp10136
ag2
(g6
S'2R+;'
p10137
tp10138
Rp10139
ag2
(g6
S'\x13\x86\xeb9'
p10140
tp10141
Rp10142
ag2
(g6
S'\xdeY";'
p10143
tp10144
Rp10145
ag2
(g6
S'\x9f\xf0\\;'
p10146
tp10147
Rp10148
ag2
(g6
S'\xd0,\x02<'
p10149
tp10150
Rp10151
ag2
(g6
S'?]\xb0;'
p10152
tp10153
Rp10154
ag2
(g6
S'\xc6\x15\x81:'
p10155
tp10156
Rp10157
ag2
(g6
S'\x82\xef\x8e;'
p10158
tp10159
Rp10160
ag2
(g6
S'\x89l\xec;'
p10161
tp10162
Rp10163
ag2
(g6
S'\x00[`<'
p10164
tp10165
Rp10166
ag2
(g6
S'\x87\xe0\xce;'
p10167
tp10168
Rp10169
ag2
(g6
S'\xdcN\xad;'
p10170
tp10171
Rp10172
ag2
(g6
S'i\xce\x8b;'
p10173
tp10174
Rp10175
ag2
(g6
S'\xd24-<'
p10176
tp10177
Rp10178
ag2
(g6
S'\xe0\xee,<'
p10179
tp10180
Rp10181
ag2
(g6
S'\xccSH;'
p10182
tp10183
Rp10184
ag2
(g6
S'I\x1c\xcb8'
p10185
tp10186
Rp10187
ag2
(g6
S'w\x990;'
p10188
tp10189
Rp10190
ag2
(g6
S'\x91\xaf\xb4;'
p10191
tp10192
Rp10193
ag2
(g6
S'\xad,\xa2;'
p10194
tp10195
Rp10196
ag2
(g6
S'\x0f\xd8\xd88'
p10197
tp10198
Rp10199
ag2
(g6
S')\xaf\x12;'
p10200
tp10201
Rp10202
ag2
(g6
S'\xef\xf5\xf2;'
p10203
tp10204
Rp10205
ag2
(g6
S'\xb3\xee\x8e;'
p10206
tp10207
Rp10208
ag2
(g6
S'\xef+\n;'
p10209
tp10210
Rp10211
ag2
(g6
S'35e;'
p10212
tp10213
Rp10214
ag2
(g6
S'\xc6s\x98;'
p10215
tp10216
Rp10217
ag2
(g6
S'\x1f?\x8b;'
p10218
tp10219
Rp10220
ag2
(g6
S')|(;'
p10221
tp10222
Rp10223
ag2
(g6
S'\xc6i%<'
p10224
tp10225
Rp10226
ag2
(g6
S'\xfd<\x04<'
p10227
tp10228
Rp10229
ag2
(g6
S'1\xcb\x9a;'
p10230
tp10231
Rp10232
ag2
(g6
S'\xbe\x97\xcd;'
p10233
tp10234
Rp10235
ag2
(g6
S')\xab(<'
p10236
tp10237
Rp10238
ag2
(g6
S'Vn\xc7;'
p10239
tp10240
Rp10241
ag2
(g6
S'ks\xda;'
p10242
tp10243
Rp10244
ag2
(g6
S'\x96\xd5#;'
p10245
tp10246
Rp10247
ag2
(g6
S'\xec\x85 <'
p10248
tp10249
Rp10250
ag2
(g6
S'Lr\xc89'
p10251
tp10252
Rp10253
ag2
(g6
S'IM\x08;'
p10254
tp10255
Rp10256
ag2
(g6
S'C\x1a\x8c:'
p10257
tp10258
Rp10259
ag2
(g6
S'\xdc>d;'
p10260
tp10261
Rp10262
ag2
(g6
S'\xa0pF;'
p10263
tp10264
Rp10265
ag2
(g6
S'\xd9\xf7k<'
p10266
tp10267
Rp10268
ag2
(g6
S'\x00\xe3\x12<'
p10269
tp10270
Rp10271
ag2
(g6
S'8\xa4\x8b:'
p10272
tp10273
Rp10274
ag2
(g6
S'\xd7\x034;'
p10275
tp10276
Rp10277
ag2
(g6
S'\x05t\x0b;'
p10278
tp10279
Rp10280
ag2
(g6
S'\x97\xdb.;'
p10281
tp10282
Rp10283
ag2
(g6
S'\xbd\xe4\xea:'
p10284
tp10285
Rp10286
ag2
(g6
S'\xbd(\x96:'
p10287
tp10288
Rp10289
ag2
(g6
S'\x02?`;'
p10290
tp10291
Rp10292
ag2
(g6
S'\xba\x06U;'
p10293
tp10294
Rp10295
ag2
(g6
S'q8\xbc:'
p10296
tp10297
Rp10298
ag2
(g6
S'\x96v\xe6;'
p10299
tp10300
Rp10301
ag2
(g6
S'9H7:'
p10302
tp10303
Rp10304
ag2
(g6
S'\xbd;\x92;'
p10305
tp10306
Rp10307
ag2
(g6
S'\xc3\xfa\x7f;'
p10308
tp10309
Rp10310
ag2
(g6
S'\xa9\xb4\x0b<'
p10311
tp10312
Rp10313
ag2
(g6
S'\xf4\x89\xd7;'
p10314
tp10315
Rp10316
ag2
(g6
S'\xbc5#;'
p10317
tp10318
Rp10319
ag2
(g6
S'I\x00\xc3:'
p10320
tp10321
Rp10322
ag2
(g6
S'\x87\xfc\xef;'
p10323
tp10324
Rp10325
ag2
(g6
S'\xd2\xc5R;'
p10326
tp10327
Rp10328
ag2
(g6
S'TO\xe6:'
p10329
tp10330
Rp10331
ag2
(g6
S'}[\x98:'
p10332
tp10333
Rp10334
ag2
(g6
S'\t#U;'
p10335
tp10336
Rp10337
ag2
(g6
S'u\xe9\x9a;'
p10338
tp10339
Rp10340
ag2
(g6
S'\xae\xbd\x98<'
p10341
tp10342
Rp10343
ag2
(g6
S'\xe8\xdf\x05<'
p10344
tp10345
Rp10346
ag2
(g6
S'\xb1\x06j;'
p10347
tp10348
Rp10349
ag2
(g6
S'\x8f\xc5\x1e;'
p10350
tp10351
Rp10352
ag2
(g6
S'\xc7\xe7\xc6;'
p10353
tp10354
Rp10355
ag2
(g6
S'O\xea\x17;'
p10356
tp10357
Rp10358
ag2
(g6
S'\xc9Le;'
p10359
tp10360
Rp10361
ag2
(g6
S'\xecz\x8c:'
p10362
tp10363
Rp10364
ag2
(g6
S'D\xf3\x89;'
p10365
tp10366
Rp10367
ag2
(g6
S',S>;'
p10368
tp10369
Rp10370
ag2
(g6
S'\xda\xe1\x8b;'
p10371
tp10372
Rp10373
ag2
(g6
S'/\x07\x0b<'
p10374
tp10375
Rp10376
ag2
(g6
S'rr\xcf;'
p10377
tp10378
Rp10379
ag2
(g6
S'Y^\xc2;'
p10380
tp10381
Rp10382
ag2
(g6
S'HO\xfd;'
p10383
tp10384
Rp10385
ag2
(g6
S'6\xb5:;'
p10386
tp10387
Rp10388
ag2
(g6
S'\xb5\x16q;'
p10389
tp10390
Rp10391
ag2
(g6
S'\xac\x1e?<'
p10392
tp10393
Rp10394
ag2
(g6
S'\xe1+\x1f;'
p10395
tp10396
Rp10397
ag2
(g6
S'\x0e\x8e\x84;'
p10398
tp10399
Rp10400
ag2
(g6
S'\xda\x88p<'
p10401
tp10402
Rp10403
ag2
(g6
S'\x99\x03\x80;'
p10404
tp10405
Rp10406
ag2
(g6
S'\x03\x90Y:'
p10407
tp10408
Rp10409
ag2
(g6
S'\x02\xd9\x94;'
p10410
tp10411
Rp10412
ag2
(g6
S'Z`\xa9;'
p10413
tp10414
Rp10415
ag2
(g6
S'/\xcf\n<'
p10416
tp10417
Rp10418
ag2
(g6
S'\xbc\xcb\x93;'
p10419
tp10420
Rp10421
ag2
(g6
S'\xc1\x9c\x06;'
p10422
tp10423
Rp10424
ag2
(g6
S'\xcb\xaa\x95;'
p10425
tp10426
Rp10427
ag2
(g6
S'\xb7\xb0\x13:'
p10428
tp10429
Rp10430
ag2
(g6
S'\x82+\xd5;'
p10431
tp10432
Rp10433
ag2
(g6
S'\xe78\x00;'
p10434
tp10435
Rp10436
ag2
(g6
S'1\x19b;'
p10437
tp10438
Rp10439
ag2
(g6
S'\n\x1eP:'
p10440
tp10441
Rp10442
ag2
(g6
S'\x1aa\x7f;'
p10443
tp10444
Rp10445
ag2
(g6
S'\x9f\xa3E;'
p10446
tp10447
Rp10448
ag2
(g6
S'\x8cb\x92;'
p10449
tp10450
Rp10451
ag2
(g6
S'\xbc\xba\xe1;'
p10452
tp10453
Rp10454
ag2
(g6
S'I\x8eM<'
p10455
tp10456
Rp10457
ag2
(g6
S'tE\x96;'
p10458
tp10459
Rp10460
ag2
(g6
S'O\xc9\t<'
p10461
tp10462
Rp10463
ag2
(g6
S'w`\xcc;'
p10464
tp10465
Rp10466
ag2
(g6
S'\xfd+w;'
p10467
tp10468
Rp10469
ag2
(g6
S'\x942\t;'
p10470
tp10471
Rp10472
ag2
(g6
S'\xac[\x06;'
p10473
tp10474
Rp10475
ag2
(g6
S'w\xd33<'
p10476
tp10477
Rp10478
ag2
(g6
S'\x93\x9f\xdc:'
p10479
tp10480
Rp10481
ag2
(g6
S'\xe1\x89k;'
p10482
tp10483
Rp10484
ag2
(g6
S'm\x0f\x88;'
p10485
tp10486
Rp10487
ag2
(g6
S'FI\x12;'
p10488
tp10489
Rp10490
ag2
(g6
S'F\x9a\x94;'
p10491
tp10492
Rp10493
ag2
(g6
S'\x1f\x0f\xf4;'
p10494
tp10495
Rp10496
ag2
(g6
S'\\\xc8|;'
p10497
tp10498
Rp10499
ag2
(g6
S'r\x97\xb8;'
p10500
tp10501
Rp10502
ag2
(g6
S'\xaa\x1bU;'
p10503
tp10504
Rp10505
ag2
(g6
S'\\\x1f><'
p10506
tp10507
Rp10508
ag2
(g6
S'\x8c\xa3\x9f;'
p10509
tp10510
Rp10511
ag2
(g6
S'\xfbTg<'
p10512
tp10513
Rp10514
ag2
(g6
S'\xf2\r\x13;'
p10515
tp10516
Rp10517
ag2
(g6
S'-Y\x8a;'
p10518
tp10519
Rp10520
ag2
(g6
S'\x19\xe44;'
p10521
tp10522
Rp10523
ag2
(g6
S'\xf9(/<'
p10524
tp10525
Rp10526
ag2
(g6
S'k7\x93;'
p10527
tp10528
Rp10529
ag2
(g6
S'Jb\x9e;'
p10530
tp10531
Rp10532
ag2
(g6
S'\x83$\x04<'
p10533
tp10534
Rp10535
ag2
(g6
S'\xb3\xa7&;'
p10536
tp10537
Rp10538
ag2
(g6
S'&04;'
p10539
tp10540
Rp10541
ag2
(g6
S'&\xf8<;'
p10542
tp10543
Rp10544
ag2
(g6
S'\x05\x13\x88;'
p10545
tp10546
Rp10547
ag2
(g6
S'\xed\xd5\xb8:'
p10548
tp10549
Rp10550
ag2
(g6
S'Y\xe2\xd5;'
p10551
tp10552
Rp10553
ag2
(g6
S'\xf6\x184<'
p10554
tp10555
Rp10556
ag2
(g6
S'\xcd\x91\xf6;'
p10557
tp10558
Rp10559
ag2
(g6
S'q\xc1\x1d='
p10560
tp10561
Rp10562
ag2
(g6
S'$\x9b\xe2:'
p10563
tp10564
Rp10565
ag2
(g6
S'6r\xbd:'
p10566
tp10567
Rp10568
ag2
(g6
S'G\xa8\xa2;'
p10569
tp10570
Rp10571
ag2
(g6
S'_-\xb0;'
p10572
tp10573
Rp10574
ag2
(g6
S'\xaby\x91;'
p10575
tp10576
Rp10577
ag2
(g6
S'\xc9\xf3\xb9;'
p10578
tp10579
Rp10580
ag2
(g6
S'T\x8cP<'
p10581
tp10582
Rp10583
ag2
(g6
S'7Pl;'
p10584
tp10585
Rp10586
ag2
(g6
S'\xf1\xdd\x19;'
p10587
tp10588
Rp10589
ag2
(g6
S'\x13(@;'
p10590
tp10591
Rp10592
ag2
(g6
S'!S\x05;'
p10593
tp10594
Rp10595
ag2
(g6
S'\xa6.\xbe;'
p10596
tp10597
Rp10598
ag2
(g6
S',\xa7P;'
p10599
tp10600
Rp10601
ag2
(g6
S'\xe8\x97\xe0;'
p10602
tp10603
Rp10604
ag2
(g6
S'\xc1\xe8\x99;'
p10605
tp10606
Rp10607
ag2
(g6
S'\xd5H\xc9;'
p10608
tp10609
Rp10610
ag2
(g6
S'\x12]\xaf;'
p10611
tp10612
Rp10613
ag2
(g6
S'A\x1cS<'
p10614
tp10615
Rp10616
ag2
(g6
S'\xfd\x15\xef;'
p10617
tp10618
Rp10619
ag2
(g6
S'6\xbdO;'
p10620
tp10621
Rp10622
ag2
(g6
S'\xec\n\xa0:'
p10623
tp10624
Rp10625
ag2
(g6
S'{\xb8\x14;'
p10626
tp10627
Rp10628
ag2
(g6
S'b\xc9\xa2:'
p10629
tp10630
Rp10631
ag2
(g6
S'O\xec\r<'
p10632
tp10633
Rp10634
ag2
(g6
S'\x96\x1d\xdd;'
p10635
tp10636
Rp10637
ag2
(g6
S'j!\xdd;'
p10638
tp10639
Rp10640
ag2
(g6
S'\x05!-;'
p10641
tp10642
Rp10643
ag2
(g6
S'Y\x9a\xd5;'
p10644
tp10645
Rp10646
ag2
(g6
S'f\xf7\x06<'
p10647
tp10648
Rp10649
ag2
(g6
S'iF\x8b<'
p10650
tp10651
Rp10652
ag2
(g6
S'g\xe3@;'
p10653
tp10654
Rp10655
ag2
(g6
S'Z"\x9c;'
p10656
tp10657
Rp10658
ag2
(g6
S')\x9e\x949'
p10659
tp10660
Rp10661
ag2
(g6
S'\xf2i9;'
p10662
tp10663
Rp10664
ag2
(g6
S'\xfb\xc1V:'
p10665
tp10666
Rp10667
ag2
(g6
S'~\xe7\xd0:'
p10668
tp10669
Rp10670
ag2
(g6
S':j\x0e<'
p10671
tp10672
Rp10673
ag2
(g6
S'DF{;'
p10674
tp10675
Rp10676
ag2
(g6
S'\x18r\x1a<'
p10677
tp10678
Rp10679
ag2
(g6
S'Q\xd3S;'
p10680
tp10681
Rp10682
ag2
(g6
S'\x85Z\x0c;'
p10683
tp10684
Rp10685
ag2
(g6
S'\xc3a\x13<'
p10686
tp10687
Rp10688
ag2
(g6
S'j\xde\xb6;'
p10689
tp10690
Rp10691
ag2
(g6
S'\xd9+\x83;'
p10692
tp10693
Rp10694
ag2
(g6
S'c\x05_;'
p10695
tp10696
Rp10697
ag2
(g6
S'\xac\x96\x8a:'
p10698
tp10699
Rp10700
ag2
(g6
S'oR\xd6:'
p10701
tp10702
Rp10703
ag2
(g6
S'\x89t\xc09'
p10704
tp10705
Rp10706
ag2
(g6
S'\x89v\x04;'
p10707
tp10708
Rp10709
ag2
(g6
S"f\xf0';"
p10710
tp10711
Rp10712
ag2
(g6
S'\xf1@\xba;'
p10713
tp10714
Rp10715
ag2
(g6
S'\x94P\x8b;'
p10716
tp10717
Rp10718
ag2
(g6
S'\xae\x14\xd1;'
p10719
tp10720
Rp10721
ag2
(g6
S'r\xd7\xb8:'
p10722
tp10723
Rp10724
ag2
(g6
S'\xcdcc;'
p10725
tp10726
Rp10727
ag2
(g6
S'\x1f\x82q;'
p10728
tp10729
Rp10730
ag2
(g6
S'V\xd62<'
p10731
tp10732
Rp10733
ag2
(g6
S'\xd4}\xe5:'
p10734
tp10735
Rp10736
ag2
(g6
S'\x8c\xcf\x919'
p10737
tp10738
Rp10739
ag2
(g6
S'\xcbx\xab:'
p10740
tp10741
Rp10742
ag2
(g6
S'l^N;'
p10743
tp10744
Rp10745
ag2
(g6
S"AR'<"
p10746
tp10747
Rp10748
ag2
(g6
S'\xf6#\x03;'
p10749
tp10750
Rp10751
ag2
(g6
S'\x9f\\\xc8:'
p10752
tp10753
Rp10754
ag2
(g6
S'\xbe\x15\xd0;'
p10755
tp10756
Rp10757
ag2
(g6
S'\x87W\x97;'
p10758
tp10759
Rp10760
ag2
(g6
S'\xcd\xa3,;'
p10761
tp10762
Rp10763
ag2
(g6
S'\xb1\x04\xc8;'
p10764
tp10765
Rp10766
ag2
(g6
S'l\x84,<'
p10767
tp10768
Rp10769
ag2
(g6
S'RO\xf8;'
p10770
tp10771
Rp10772
ag2
(g6
S'\x11\x98\xd0;'
p10773
tp10774
Rp10775
ag2
(g6
S'\xda\x1bY<'
p10776
tp10777
Rp10778
ag2
(g6
S'\x17f\x00<'
p10779
tp10780
Rp10781
ag2
(g6
S'TI\xc3;'
p10782
tp10783
Rp10784
ag2
(g6
S'\xe5\xc7\xf4;'
p10785
tp10786
Rp10787
ag2
(g6
S'\x0f\xeeB;'
p10788
tp10789
Rp10790
ag2
(g6
S'\n\xf7\x05;'
p10791
tp10792
Rp10793
ag2
(g6
S'\xb1\xf1\xe5<'
p10794
tp10795
Rp10796
ag2
(g6
S'\x1e\x95S;'
p10797
tp10798
Rp10799
ag2
(g6
S'\xd9\x8f\xc7:'
p10800
tp10801
Rp10802
ag2
(g6
S'Lp\xd9;'
p10803
tp10804
Rp10805
ag2
(g6
S'Ie\x94:'
p10806
tp10807
Rp10808
ag2
(g6
S'\x03\x9c\x10<'
p10809
tp10810
Rp10811
ag2
(g6
S'\xd5\xe4n;'
p10812
tp10813
Rp10814
ag2
(g6
S'\x02\x8f\xc1;'
p10815
tp10816
Rp10817
ag2
(g6
S'\xccM/;'
p10818
tp10819
Rp10820
ag2
(g6
S'\xb8H/;'
p10821
tp10822
Rp10823
ag2
(g6
S'\xa1\xc3?;'
p10824
tp10825
Rp10826
ag2
(g6
S'\x1a\xa12<'
p10827
tp10828
Rp10829
ag2
(g6
S'\xf9\x0c~;'
p10830
tp10831
Rp10832
ag2
(g6
S'\x81q\x04;'
p10833
tp10834
Rp10835
ag2
(g6
S'\xed\xc0\xc1;'
p10836
tp10837
Rp10838
ag2
(g6
S'\xf9$~;'
p10839
tp10840
Rp10841
ag2
(g6
S':\xfd\x81;'
p10842
tp10843
Rp10844
ag2
(g6
S'\x1a\xd11;'
p10845
tp10846
Rp10847
ag2
(g6
S'\xcf\x84\xc7;'
p10848
tp10849
Rp10850
ag2
(g6
S'\x98\xb9\xb5;'
p10851
tp10852
Rp10853
ag2
(g6
S'"\xd0\xfd:'
p10854
tp10855
Rp10856
ag2
(g6
S"'\xc0\xbb:"
p10857
tp10858
Rp10859
ag2
(g6
S'f\x0f\x05<'
p10860
tp10861
Rp10862
ag2
(g6
S';\xff\x0f;'
p10863
tp10864
Rp10865
ag2
(g6
S'8t\xb1:'
p10866
tp10867
Rp10868
ag2
(g6
S'\xfej\x07<'
p10869
tp10870
Rp10871
ag2
(g6
S'\x8a\xe6\xc5:'
p10872
tp10873
Rp10874
ag2
(g6
S'\xcf\x84[<'
p10875
tp10876
Rp10877
ag2
(g6
S'8 \xde:'
p10878
tp10879
Rp10880
ag2
(g6
S':\x19\xda;'
p10881
tp10882
Rp10883
ag2
(g6
S'\xbc/\x90;'
p10884
tp10885
Rp10886
ag2
(g6
S'\xef%W;'
p10887
tp10888
Rp10889
ag2
(g6
S'\x8c\x1d\xbf;'
p10890
tp10891
Rp10892
ag2
(g6
S'oCi<'
p10893
tp10894
Rp10895
ag2
(g6
S'\xec\x12\x0c;'
p10896
tp10897
Rp10898
ag2
(g6
S'\x9f\xc9\x16;'
p10899
tp10900
Rp10901
ag2
(g6
S' \x19\x91;'
p10902
tp10903
Rp10904
ag2
(g6
S'\xdbp\x11<'
p10905
tp10906
Rp10907
ag2
(g6
S'\x83\xa75;'
p10908
tp10909
Rp10910
ag2
(g6
S'\x11}\xff:'
p10911
tp10912
Rp10913
ag2
(g6
S'q\x06\x88;'
p10914
tp10915
Rp10916
ag2
(g6
S'Z\x1d\xde;'
p10917
tp10918
Rp10919
ag2
(g6
S'\xc0\x13\x08;'
p10920
tp10921
Rp10922
ag2
(g6
S'\x8c\x96\xa2;'
p10923
tp10924
Rp10925
ag2
(g6
S'\xa6v\xb5;'
p10926
tp10927
Rp10928
ag2
(g6
S'{R\xee;'
p10929
tp10930
Rp10931
ag2
(g6
S'\xef\xfa\xe8;'
p10932
tp10933
Rp10934
ag2
(g6
S'\xbc\xa1[;'
p10935
tp10936
Rp10937
ag2
(g6
S'\xa2Z\x18<'
p10938
tp10939
Rp10940
ag2
(g6
S'B\xf6\xb9;'
p10941
tp10942
Rp10943
ag2
(g6
S'\xe8\x07\x16<'
p10944
tp10945
Rp10946
ag2
(g6
S'1\x9e\xa8;'
p10947
tp10948
Rp10949
ag2
(g6
S't\x08\x8b;'
p10950
tp10951
Rp10952
ag2
(g6
S'\x1f]\xad9'
p10953
tp10954
Rp10955
ag2
(g6
S'R\x9fR<'
p10956
tp10957
Rp10958
ag2
(g6
S'\xb1B\x08<'
p10959
tp10960
Rp10961
ag2
(g6
S'tR\xb7;'
p10962
tp10963
Rp10964
ag2
(g6
S'1\xec<<'
p10965
tp10966
Rp10967
ag2
(g6
S'U\xa9\xaf;'
p10968
tp10969
Rp10970
ag2
(g6
S'\xda\xf7\x1f<'
p10971
tp10972
Rp10973
ag2
(g6
S'\xc4\x14\xae;'
p10974
tp10975
Rp10976
ag2
(g6
S'o\x91\x0c<'
p10977
tp10978
Rp10979
ag2
(g6
S'\xd8\x8b\xc8:'
p10980
tp10981
Rp10982
ag2
(g6
S'55i;'
p10983
tp10984
Rp10985
ag2
(g6
S'm\x98E<'
p10986
tp10987
Rp10988
ag2
(g6
S'Z\xa9\xa5;'
p10989
tp10990
Rp10991
ag2
(g6
S'\xc8\xef2;'
p10992
tp10993
Rp10994
ag2
(g6
S'\xd5\x14\xa0;'
p10995
tp10996
Rp10997
ag2
(g6
S'\xbfxB<'
p10998
tp10999
Rp11000
ag2
(g6
S'\xab{\x8c;'
p11001
tp11002
Rp11003
ag2
(g6
S'\xcd\xeaF<'
p11004
tp11005
Rp11006
ag2
(g6
S'\xa9\xee\xd1;'
p11007
tp11008
Rp11009
ag2
(g6
S'y\x81\xc8:'
p11010
tp11011
Rp11012
ag2
(g6
S':F\xdc;'
p11013
tp11014
Rp11015
ag2
(g6
S'\xd0\x13G;'
p11016
tp11017
Rp11018
ag2
(g6
S'MS)<'
p11019
tp11020
Rp11021
ag2
(g6
S'\x1f\xc7\x02<'
p11022
tp11023
Rp11024
ag2
(g6
S'\xd9\xe4\xbb;'
p11025
tp11026
Rp11027
ag2
(g6
S'\xf5\x92\x11;'
p11028
tp11029
Rp11030
ag2
(g6
S"='T:"
p11031
tp11032
Rp11033
ag2
(g6
S'\xb2r\x87;'
p11034
tp11035
Rp11036
ag2
(g6
S'\xa0\xf5\xda;'
p11037
tp11038
Rp11039
ag2
(g6
S'g\xa2\x18;'
p11040
tp11041
Rp11042
ag2
(g6
S'\x81\x8f\xb8;'
p11043
tp11044
Rp11045
ag2
(g6
S'\xa0(L;'
p11046
tp11047
Rp11048
ag2
(g6
S'\x87\xd2V9'
p11049
tp11050
Rp11051
ag2
(g6
S'Q\xf5\x9c;'
p11052
tp11053
Rp11054
ag2
(g6
S'\xd6\xb9\x10;'
p11055
tp11056
Rp11057
ag2
(g6
S'!\x857<'
p11058
tp11059
Rp11060
ag2
(g6
S'\x87\x15\x10;'
p11061
tp11062
Rp11063
ag2
(g6
S'\x85\t\xec;'
p11064
tp11065
Rp11066
ag2
(g6
S'\nT\x1a;'
p11067
tp11068
Rp11069
ag2
(g6
S'\x030\x18<'
p11070
tp11071
Rp11072
ag2
(g6
S',\x92 ;'
p11073
tp11074
Rp11075
ag2
(g6
S'\x0c\xd0\x0c;'
p11076
tp11077
Rp11078
ag2
(g6
S'\xb8\x9f\x85;'
p11079
tp11080
Rp11081
ag2
(g6
S"y ';"
p11082
tp11083
Rp11084
ag2
(g6
S'D\xee\x9e;'
p11085
tp11086
Rp11087
ag2
(g6
S'Y\xdbZ9'
p11088
tp11089
Rp11090
ag2
(g6
S"'\x94C<"
p11091
tp11092
Rp11093
ag2
(g6
S'7r\x8d;'
p11094
tp11095
Rp11096
ag2
(g6
S'\x93"{:'
p11097
tp11098
Rp11099
ag2
(g6
S'o\xe0\xd4:'
p11100
tp11101
Rp11102
ag2
(g6
S'\x13s^;'
p11103
tp11104
Rp11105
ag2
(g6
S'`c[;'
p11106
tp11107
Rp11108
ag2
(g6
S'\x10\x16\xa5:'
p11109
tp11110
Rp11111
ag2
(g6
S'\xfd\xe8\xcd;'
p11112
tp11113
Rp11114
ag2
(g6
S'\xba\xd5\xd0:'
p11115
tp11116
Rp11117
ag2
(g6
S'\xd3\xd2Q;'
p11118
tp11119
Rp11120
ag2
(g6
S'\xa7\xea\xf6:'
p11121
tp11122
Rp11123
ag2
(g6
S'E\x81\xbe;'
p11124
tp11125
Rp11126
ag2
(g6
S'\x9a\xad\x01<'
p11127
tp11128
Rp11129
ag2
(g6
S'wm\x9b;'
p11130
tp11131
Rp11132
ag2
(g6
S'\x98\xeb ;'
p11133
tp11134
Rp11135
ag2
(g6
S'\xc9\xf59;'
p11136
tp11137
Rp11138
ag2
(g6
S'}\x04\xd7;'
p11139
tp11140
Rp11141
ag2
(g6
S'\xba\x96\xab;'
p11142
tp11143
Rp11144
ag2
(g6
S'\xbc=\x8c:'
p11145
tp11146
Rp11147
ag2
(g6
S'9\xd6\xbb:'
p11148
tp11149
Rp11150
ag2
(g6
S'\x8d\xfd\xd2;'
p11151
tp11152
Rp11153
ag2
(g6
S'\xfb8T;'
p11154
tp11155
Rp11156
ag2
(g6
S'\xcf\xd1E;'
p11157
tp11158
Rp11159
ag2
(g6
S"'\xd4\x89;"
p11160
tp11161
Rp11162
ag2
(g6
S'\xfb\xe7H<'
p11163
tp11164
Rp11165
ag2
(g6
S'.a5<'
p11166
tp11167
Rp11168
ag2
(g6
S'\x80N\xa2:'
p11169
tp11170
Rp11171
ag2
(g6
S'\x95\xf0\xba:'
p11172
tp11173
Rp11174
ag2
(g6
S'\\m\xa6;'
p11175
tp11176
Rp11177
ag2
(g6
S'\x02W%<'
p11178
tp11179
Rp11180
ag2
(g6
S'\x0c\x0b\x0f:'
p11181
tp11182
Rp11183
ag2
(g6
S'B\xe1\x1e;'
p11184
tp11185
Rp11186
ag2
(g6
S'\x88\xf4\x0e<'
p11187
tp11188
Rp11189
ag2
(g6
S'\xe2J\x19;'
p11190
tp11191
Rp11192
ag2
(g6
S'\x963\xd7:'
p11193
tp11194
Rp11195
ag2
(g6
S'\x1fE]<'
p11196
tp11197
Rp11198
ag2
(g6
S'\xe5\xb5@;'
p11199
tp11200
Rp11201
ag2
(g6
S'x\x95\t<'
p11202
tp11203
Rp11204
ag2
(g6
S'\xcb-0;'
p11205
tp11206
Rp11207
ag2
(g6
S'\x92\x80\x13<'
p11208
tp11209
Rp11210
ag2
(g6
S'Q\xed><'
p11211
tp11212
Rp11213
ag2
(g6
S"'4h:"
p11214
tp11215
Rp11216
ag2
(g6
S'\xb7\x8ae<'
p11217
tp11218
Rp11219
ag2
(g6
S'\xd0\xa0\xd0;'
p11220
tp11221
Rp11222
ag2
(g6
S'T*\x83;'
p11223
tp11224
Rp11225
ag2
(g6
S'\xab\x92\xe0;'
p11226
tp11227
Rp11228
ag2
(g6
S'\xae{j;'
p11229
tp11230
Rp11231
ag2
(g6
S'\xf7\x1dm;'
p11232
tp11233
Rp11234
ag2
(g6
S'}\x92\x9c;'
p11235
tp11236
Rp11237
ag2
(g6
S'N;4<'
p11238
tp11239
Rp11240
ag2
(g6
S'\x0c\xdfc<'
p11241
tp11242
Rp11243
ag2
(g6
S'\x1b\x8b-<'
p11244
tp11245
Rp11246
ag2
(g6
S'\xaa\xda\x14;'
p11247
tp11248
Rp11249
ag2
(g6
S'C\xeeo<'
p11250
tp11251
Rp11252
ag2
(g6
S'\xa0\x0f\x85;'
p11253
tp11254
Rp11255
ag2
(g6
S'%,0;'
p11256
tp11257
Rp11258
ag2
(g6
S'\xf9\xb8\x15;'
p11259
tp11260
Rp11261
ag2
(g6
S'\xfdx,;'
p11262
tp11263
Rp11264
ag2
(g6
S'\xd9\x00\xbb;'
p11265
tp11266
Rp11267
ag2
(g6
S'\xf9^\xd7:'
p11268
tp11269
Rp11270
ag2
(g6
S'Mm\xf4;'
p11271
tp11272
Rp11273
ag2
(g6
S'NJ<;'
p11274
tp11275
Rp11276
ag2
(g6
S'}\x8a\x04;'
p11277
tp11278
Rp11279
ag2
(g6
S'{e\xcc;'
p11280
tp11281
Rp11282
ag2
(g6
S'\xb3\xbf\x82;'
p11283
tp11284
Rp11285
ag2
(g6
S'o\xca\x05<'
p11286
tp11287
Rp11288
ag2
(g6
S'^\xbc\xc5;'
p11289
tp11290
Rp11291
ag2
(g6
S'Z\xde$<'
p11292
tp11293
Rp11294
ag2
(g6
S'\xa4I\x08<'
p11295
tp11296
Rp11297
ag2
(g6
S',\x14\xb4;'
p11298
tp11299
Rp11300
ag2
(g6
S'\xe8\x80\x8f;'
p11301
tp11302
Rp11303
ag2
(g6
S'Y\xec];'
p11304
tp11305
Rp11306
ag2
(g6
S'{\x0e\xe7;'
p11307
tp11308
Rp11309
ag2
(g6
S'r##='
p11310
tp11311
Rp11312
ag2
(g6
S'\xe6LA;'
p11313
tp11314
Rp11315
ag2
(g6
S'\xb1\xaf\xc7;'
p11316
tp11317
Rp11318
ag2
(g6
S'\x99\rT;'
p11319
tp11320
Rp11321
ag2
(g6
S'cu\x02<'
p11322
tp11323
Rp11324
ag2
(g6
S'\xde`\x1a;'
p11325
tp11326
Rp11327
ag2
(g6
S'\x1d\xe6\x81;'
p11328
tp11329
Rp11330
ag2
(g6
S'\x1c\n\xd5:'
p11331
tp11332
Rp11333
ag2
(g6
S'\xe96\xaa;'
p11334
tp11335
Rp11336
ag2
(g6
S'\trP;'
p11337
tp11338
Rp11339
ag2
(g6
S'&>\xaf;'
p11340
tp11341
Rp11342
ag2
(g6
S'\x96\xbc\x03<'
p11343
tp11344
Rp11345
ag2
(g6
S'\x8c\x18!<'
p11346
tp11347
Rp11348
ag2
(g6
S'\x962\x81<'
p11349
tp11350
Rp11351
ag2
(g6
S'\xd2\\\x96:'
p11352
tp11353
Rp11354
ag2
(g6
S'\xa48\x03<'
p11355
tp11356
Rp11357
ag2
(g6
S'3Kg;'
p11358
tp11359
Rp11360
ag2
(g6
S'1s\x99:'
p11361
tp11362
Rp11363
ag2
(g6
S'f\xdeU;'
p11364
tp11365
Rp11366
ag2
(g6
S'$\xbe\t;'
p11367
tp11368
Rp11369
ag2
(g6
S'>\x8d*<'
p11370
tp11371
Rp11372
ag2
(g6
S'\x87s\x89;'
p11373
tp11374
Rp11375
ag2
(g6
S'\x05O\x06<'
p11376
tp11377
Rp11378
ag2
(g6
S'4<"9'
p11379
tp11380
Rp11381
ag2
(g6
S'~\xa5\x1f;'
p11382
tp11383
Rp11384
ag2
(g6
S'\x80\x98,<'
p11385
tp11386
Rp11387
ag2
(g6
S'&\xa9]:'
p11388
tp11389
Rp11390
ag2
(g6
S'\x96t\xc6;'
p11391
tp11392
Rp11393
ag2
(g6
S'?\xda\x05:'
p11394
tp11395
Rp11396
ag2
(g6
S'\x83QU;'
p11397
tp11398
Rp11399
ag2
(g6
S'9\x82\x8f;'
p11400
tp11401
Rp11402
ag2
(g6
S'TW4;'
p11403
tp11404
Rp11405
ag2
(g6
S'\x02\xc1j<'
p11406
tp11407
Rp11408
ag2
(g6
S'A*";'
p11409
tp11410
Rp11411
ag2
(g6
S'\xaf\xc3\x8f;'
p11412
tp11413
Rp11414
ag2
(g6
S')\x1dL;'
p11415
tp11416
Rp11417
ag2
(g6
S'%\x96V;'
p11418
tp11419
Rp11420
ag2
(g6
S'\xaei\xa0:'
p11421
tp11422
Rp11423
ag2
(g6
S'\x13\x96\x05;'
p11424
tp11425
Rp11426
ag2
(g6
S'\x0f\xfd\x16;'
p11427
tp11428
Rp11429
ag2
(g6
S'\xd5\x08\x12<'
p11430
tp11431
Rp11432
ag2
(g6
S'\xf1K\x99;'
p11433
tp11434
Rp11435
ag2
(g6
S'\xb0\xdby;'
p11436
tp11437
Rp11438
ag2
(g6
S'\x07\xc9\x1d;'
p11439
tp11440
Rp11441
ag2
(g6
S'\x96\x96|;'
p11442
tp11443
Rp11444
ag2
(g6
S'\xf3\x89\t:'
p11445
tp11446
Rp11447
ag2
(g6
S'O"n:'
p11448
tp11449
Rp11450
ag2
(g6
S')\x9eZ;'
p11451
tp11452
Rp11453
ag2
(g6
S'\xadu\x8f:'
p11454
tp11455
Rp11456
ag2
(g6
S'\t\x8d\x8d;'
p11457
tp11458
Rp11459
ag2
(g6
S'\x06\\\xbb;'
p11460
tp11461
Rp11462
ag2
(g6
S'\xf4y%;'
p11463
tp11464
Rp11465
ag2
(g6
S'\xbf\xdd\x9a:'
p11466
tp11467
Rp11468
ag2
(g6
S'}\xf8\xca:'
p11469
tp11470
Rp11471
ag2
(g6
S'\xe0\x93s;'
p11472
tp11473
Rp11474
ag2
(g6
S'\x9d\xc4\xde;'
p11475
tp11476
Rp11477
ag2
(g6
S'=0\x91;'
p11478
tp11479
Rp11480
ag2
(g6
S'\xbb\x1c\x87;'
p11481
tp11482
Rp11483
ag2
(g6
S'Afs;'
p11484
tp11485
Rp11486
ag2
(g6
S'\xab:\xf8;'
p11487
tp11488
Rp11489
ag2
(g6
S'*\xfb\x02:'
p11490
tp11491
Rp11492
ag2
(g6
S'\xce\x1b\x89;'
p11493
tp11494
Rp11495
ag2
(g6
S'\x9a}*<'
p11496
tp11497
Rp11498
ag2
(g6
S'w\xe0\xdf;'
p11499
tp11500
Rp11501
ag2
(g6
S'\xa6Y\x96:'
p11502
tp11503
Rp11504
ag2
(g6
S'\xac\x1a;;'
p11505
tp11506
Rp11507
ag2
(g6
S'\xd42\x0b<'
p11508
tp11509
Rp11510
ag2
(g6
S'!\xe6\x83:'
p11511
tp11512
Rp11513
ag2
(g6
S'\xb5\\f:'
p11514
tp11515
Rp11516
ag2
(g6
S'\xa6\x0e\x93<'
p11517
tp11518
Rp11519
ag2
(g6
S'\xab\x8d\x87:'
p11520
tp11521
Rp11522
ag2
(g6
S'\x00e\xd4;'
p11523
tp11524
Rp11525
ag2
(g6
S'\xfd\x7f\x9e:'
p11526
tp11527
Rp11528
ag2
(g6
S'C02<'
p11529
tp11530
Rp11531
ag2
(g6
S'\x19>\x059'
p11532
tp11533
Rp11534
ag2
(g6
S'\xb1\xbc\xc5;'
p11535
tp11536
Rp11537
ag2
(g6
S'=Pa<'
p11538
tp11539
Rp11540
ag2
(g6
S'/\xf5\n<'
p11541
tp11542
Rp11543
ag2
(g6
S'\x8f\xb6\x94;'
p11544
tp11545
Rp11546
ag2
(g6
S'=\xda\xf3;'
p11547
tp11548
Rp11549
ag2
(g6
S'\xd0\xf0\xd0;'
p11550
tp11551
Rp11552
ag2
(g6
S'"\xe3\xa3:'
p11553
tp11554
Rp11555
ag2
(g6
S'\xf1Z\x98;'
p11556
tp11557
Rp11558
ag2
(g6
S'\xd5\x08\xa1;'
p11559
tp11560
Rp11561
ag2
(g6
S'S\xe6\x14<'
p11562
tp11563
Rp11564
ag2
(g6
S'\xe0\xcdW;'
p11565
tp11566
Rp11567
ag2
(g6
S'\xb3\xd6A:'
p11568
tp11569
Rp11570
ag2
(g6
S'\xb8\xd4\x05<'
p11571
tp11572
Rp11573
ag2
(g6
S'\xba\xe0G;'
p11574
tp11575
Rp11576
ag2
(g6
S'\xed\xf0\xd0;'
p11577
tp11578
Rp11579
ag2
(g6
S'RU\xca9'
p11580
tp11581
Rp11582
ag2
(g6
S'\x01\xfe$<'
p11583
tp11584
Rp11585
ag2
(g6
S'\x11\xe8\xa7;'
p11586
tp11587
Rp11588
ag2
(g6
S'\x9a\x99R;'
p11589
tp11590
Rp11591
ag2
(g6
S'\xd3\xde\xa2:'
p11592
tp11593
Rp11594
ag2
(g6
S'8\x91\x02<'
p11595
tp11596
Rp11597
ag2
(g6
S'\xa0\xed);'
p11598
tp11599
Rp11600
ag2
(g6
S'rj\x81;'
p11601
tp11602
Rp11603
ag2
(g6
S'\x14/<<'
p11604
tp11605
Rp11606
ag2
(g6
S'0\x9d\xfd;'
p11607
tp11608
Rp11609
ag2
(g6
S'\x0c&\x84;'
p11610
tp11611
Rp11612
ag2
(g6
S'\x94\xc3*:'
p11613
tp11614
Rp11615
ag2
(g6
S'\xbb\x0e\xbc<'
p11616
tp11617
Rp11618
ag2
(g6
S'\xf9\xb3\x82;'
p11619
tp11620
Rp11621
ag2
(g6
S'\xc3\xae\x81;'
p11622
tp11623
Rp11624
ag2
(g6
S'\xc6\x97\xc5:'
p11625
tp11626
Rp11627
ag2
(g6
S'd.\xad;'
p11628
tp11629
Rp11630
ag2
(g6
S'\xa0@\xab;'
p11631
tp11632
Rp11633
ag2
(g6
S'\xce\x8aG;'
p11634
tp11635
Rp11636
ag2
(g6
S'\xa2\xd3\xbd;'
p11637
tp11638
Rp11639
ag2
(g6
S'\\v];'
p11640
tp11641
Rp11642
ag2
(g6
S't\xa4\xdf:'
p11643
tp11644
Rp11645
ag2
(g6
S'W );'
p11646
tp11647
Rp11648
ag2
(g6
S'MT+<'
p11649
tp11650
Rp11651
ag2
(g6
S'+\x1a#<'
p11652
tp11653
Rp11654
ag2
(g6
S'\xc9\xa5\x0e<'
p11655
tp11656
Rp11657
ag2
(g6
S'2%\xba;'
p11658
tp11659
Rp11660
ag2
(g6
S'\xe1\xae\xb6;'
p11661
tp11662
Rp11663
ag2
(g6
S'\xf6\n.<'
p11664
tp11665
Rp11666
ag2
(g6
S'HDc<'
p11667
tp11668
Rp11669
ag2
(g6
S'8\xf8m;'
p11670
tp11671
Rp11672
ag2
(g6
S'\xf0\xb5\xca:'
p11673
tp11674
Rp11675
ag2
(g6
S'\x07\xd4i;'
p11676
tp11677
Rp11678
ag2
(g6
S"'\xdc=;"
p11679
tp11680
Rp11681
ag2
(g6
S'\x01jK<'
p11682
tp11683
Rp11684
ag2
(g6
S'\n\xdf\x83;'
p11685
tp11686
Rp11687
ag2
(g6
S'\x91\xa3\xc4;'
p11688
tp11689
Rp11690
ag2
(g6
S'0\xed~;'
p11691
tp11692
Rp11693
ag2
(g6
S'\x92\xeb\xcc;'
p11694
tp11695
Rp11696
ag2
(g6
S'~q\xd9;'
p11697
tp11698
Rp11699
ag2
(g6
S'\xfd\xb2\x00<'
p11700
tp11701
Rp11702
ag2
(g6
S'\x85\xa5\x86;'
p11703
tp11704
Rp11705
ag2
(g6
S'\x9aU\xaa;'
p11706
tp11707
Rp11708
ag2
(g6
S';\xb4:;'
p11709
tp11710
Rp11711
ag2
(g6
S'`\xc7\x98;'
p11712
tp11713
Rp11714
ag2
(g6
S'\x9c=\xcf;'
p11715
tp11716
Rp11717
ag2
(g6
S'.\xf7\xdd;'
p11718
tp11719
Rp11720
ag2
(g6
S'\x14\x15\xbe:'
p11721
tp11722
Rp11723
ag2
(g6
S'S=X;'
p11724
tp11725
Rp11726
ag2
(g6
S'\x18\xca\xe6;'
p11727
tp11728
Rp11729
ag2
(g6
S'5x\xab;'
p11730
tp11731
Rp11732
ag2
(g6
S'e\xca\x00;'
p11733
tp11734
Rp11735
ag2
(g6
S'\xe5\xe1\x88:'
p11736
tp11737
Rp11738
ag2
(g6
S'wT,<'
p11739
tp11740
Rp11741
ag2
(g6
S'\xbc\xafj;'
p11742
tp11743
Rp11744
ag2
(g6
S'Z\t\xc5;'
p11745
tp11746
Rp11747
ag2
(g6
S'\xa7\x06h;'
p11748
tp11749
Rp11750
ag2
(g6
S'\xbf\xdc\xdf;'
p11751
tp11752
Rp11753
ag2
(g6
S'\xe1\x151;'
p11754
tp11755
Rp11756
ag2
(g6
S'[\r\xb7;'
p11757
tp11758
Rp11759
ag2
(g6
S'\x9aR\xb6:'
p11760
tp11761
Rp11762
ag2
(g6
S'\x98\x1d\x81:'
p11763
tp11764
Rp11765
ag2
(g6
S'\x1a\x1e\x11<'
p11766
tp11767
Rp11768
ag2
(g6
S'\x07y\x8d:'
p11769
tp11770
Rp11771
ag2
(g6
S'3\x03\xc8:'
p11772
tp11773
Rp11774
ag2
(g6
S'\xe3#%;'
p11775
tp11776
Rp11777
ag2
(g6
S'\x03\xcd\x0b:'
p11778
tp11779
Rp11780
ag2
(g6
S'\x1b\x9b\x1f;'
p11781
tp11782
Rp11783
ag2
(g6
S'vt4;'
p11784
tp11785
Rp11786
ag2
(g6
S'hC\xf8:'
p11787
tp11788
Rp11789
ag2
(g6
S'\xa28\xe0;'
p11790
tp11791
Rp11792
ag2
(g6
S'\x10\xaf6<'
p11793
tp11794
Rp11795
ag2
(g6
S'\xac#)<'
p11796
tp11797
Rp11798
ag2
(g6
S'\xb1\xbaA;'
p11799
tp11800
Rp11801
ag2
(g6
S'\x8dC\xb9;'
p11802
tp11803
Rp11804
ag2
(g6
S'\x0bA\x19;'
p11805
tp11806
Rp11807
ag2
(g6
S'L\xdd\x84;'
p11808
tp11809
Rp11810
ag2
(g6
S'P\xf4\xd0;'
p11811
tp11812
Rp11813
ag2
(g6
S'Fj\x80;'
p11814
tp11815
Rp11816
ag2
(g6
S'\x9d\x12F;'
p11817
tp11818
Rp11819
ag2
(g6
S'wO\x88;'
p11820
tp11821
Rp11822
ag2
(g6
S'\xd9\xdbd;'
p11823
tp11824
Rp11825
ag2
(g6
S'\x0bh\xaf:'
p11826
tp11827
Rp11828
ag2
(g6
S'0\\S<'
p11829
tp11830
Rp11831
ag2
(g6
S'\x13\xa4*;'
p11832
tp11833
Rp11834
ag2
(g6
S'\xe8+X;'
p11835
tp11836
Rp11837
ag2
(g6
S',7\x1c<'
p11838
tp11839
Rp11840
ag2
(g6
S'\x95\xff\x93<'
p11841
tp11842
Rp11843
ag2
(g6
S'\xc1U)<'
p11844
tp11845
Rp11846
ag2
(g6
S'\xacd\xf8:'
p11847
tp11848
Rp11849
ag2
(g6
S'\xc4%\x04<'
p11850
tp11851
Rp11852
ag2
(g6
S'\xa6\xa4\x04;'
p11853
tp11854
Rp11855
ag2
(g6
S'\xc6\x10\x90;'
p11856
tp11857
Rp11858
ag2
(g6
S'$\x9cQ;'
p11859
tp11860
Rp11861
ag2
(g6
S'\x1a\xb8\xcb;'
p11862
tp11863
Rp11864
ag2
(g6
S'\x9b\xfc\x91;'
p11865
tp11866
Rp11867
ag2
(g6
S'\xfe\x0f\x82;'
p11868
tp11869
Rp11870
ag2
(g6
S'\x02\x97};'
p11871
tp11872
Rp11873
ag2
(g6
S'\xb7\xd4\x1f;'
p11874
tp11875
Rp11876
ag2
(g6
S'\xe8`\xfd:'
p11877
tp11878
Rp11879
ag2
(g6
S'N\xbd\x92;'
p11880
tp11881
Rp11882
ag2
(g6
S'\xc6\x0fj;'
p11883
tp11884
Rp11885
ag2
(g6
S'F\xb7\xce;'
p11886
tp11887
Rp11888
ag2
(g6
S'F\xf1h;'
p11889
tp11890
Rp11891
ag2
(g6
S'#C\x9e;'
p11892
tp11893
Rp11894
ag2
(g6
S'\xb0q\x15;'
p11895
tp11896
Rp11897
ag2
(g6
S'uC\x03;'
p11898
tp11899
Rp11900
ag2
(g6
S'\xf2\xa7\xfb:'
p11901
tp11902
Rp11903
ag2
(g6
S'\x03\x17\xec:'
p11904
tp11905
Rp11906
ag2
(g6
S'\xf2\x98\xae;'
p11907
tp11908
Rp11909
ag2
(g6
S'\xca\xd9\x17;'
p11910
tp11911
Rp11912
ag2
(g6
S',Zf;'
p11913
tp11914
Rp11915
ag2
(g6
S'\xfb4=<'
p11916
tp11917
Rp11918
ag2
(g6
S'\xc7\xe9\xa6<'
p11919
tp11920
Rp11921
ag2
(g6
S'\xb1\x1b#:'
p11922
tp11923
Rp11924
ag2
(g6
S'\xe1\xab\t;'
p11925
tp11926
Rp11927
ag2
(g6
S'MZ\xd0;'
p11928
tp11929
Rp11930
ag2
(g6
S'P3\xef;'
p11931
tp11932
Rp11933
ag2
(g6
S'Z\xc8E<'
p11934
tp11935
Rp11936
ag2
(g6
S'hz\x0e;'
p11937
tp11938
Rp11939
ag2
(g6
S'<\x19\x12<'
p11940
tp11941
Rp11942
ag2
(g6
S'\xe1\x96y;'
p11943
tp11944
Rp11945
ag2
(g6
S'K\xd7\xa4:'
p11946
tp11947
Rp11948
ag2
(g6
S'\xc6\x0c\xb4;'
p11949
tp11950
Rp11951
ag2
(g6
S'\xc4}3;'
p11952
tp11953
Rp11954
ag2
(g6
S'K\xb9\xa4;'
p11955
tp11956
Rp11957
ag2
(g6
S'\xe3\xe5\xae;'
p11958
tp11959
Rp11960
ag2
(g6
S'\x96\x9fm;'
p11961
tp11962
Rp11963
ag2
(g6
S'\x99}\xbb;'
p11964
tp11965
Rp11966
ag2
(g6
S'?M\xc6:'
p11967
tp11968
Rp11969
ag2
(g6
S'\xcd\x19\xa2;'
p11970
tp11971
Rp11972
ag2
(g6
S"\x7f'\xab;"
p11973
tp11974
Rp11975
ag2
(g6
S'y>\xce;'
p11976
tp11977
Rp11978
ag2
(g6
S'\xea\xc9\xa0;'
p11979
tp11980
Rp11981
ag2
(g6
S' !\xc3;'
p11982
tp11983
Rp11984
ag2
(g6
S'=\xb4L;'
p11985
tp11986
Rp11987
ag2
(g6
S'l\xd1\xed:'
p11988
tp11989
Rp11990
ag2
(g6
S'\xc3q\x89:'
p11991
tp11992
Rp11993
ag2
(g6
S'\xf9\xb8\n9'
p11994
tp11995
Rp11996
ag2
(g6
S'I\xe6\x18<'
p11997
tp11998
Rp11999
ag2
(g6
S')\x12\xbc;'
p12000
tp12001
Rp12002
ag2
(g6
S'\xd7\xdf\xfa;'
p12003
tp12004
Rp12005
ag2
(g6
S'\xa0\xde\xf7;'
p12006
tp12007
Rp12008
ag2
(g6
S'1\n\xac;'
p12009
tp12010
Rp12011
ag2
(g6
S'\x98,\xec;'
p12012
tp12013
Rp12014
ag2
(g6
S'\xf9\x9cJ;'
p12015
tp12016
Rp12017
ag2
(g6
S'$\xdaU;'
p12018
tp12019
Rp12020
ag2
(g6
S'\x94\x8c\x9d;'
p12021
tp12022
Rp12023
ag2
(g6
S'h:\x00<'
p12024
tp12025
Rp12026
ag2
(g6
S'\xd4\x1a\xbf:'
p12027
tp12028
Rp12029
ag2
(g6
S'M\xc4\x88;'
p12030
tp12031
Rp12032
ag2
(g6
S'Ww\xc2:'
p12033
tp12034
Rp12035
ag2
(g6
S'A\xe3\xa2;'
p12036
tp12037
Rp12038
ag2
(g6
S'`\xcc\x01<'
p12039
tp12040
Rp12041
ag2
(g6
S'op\x97;'
p12042
tp12043
Rp12044
ag2
(g6
S'.B\xb0;'
p12045
tp12046
Rp12047
ag2
(g6
S'5:\xf7:'
p12048
tp12049
Rp12050
ag2
(g6
S'\x83\xa4\xb8:'
p12051
tp12052
Rp12053
ag2
(g6
S"\x1b'\xc2:"
p12054
tp12055
Rp12056
ag2
(g6
S': \x92;'
p12057
tp12058
Rp12059
ag2
(g6
S'J\x1c\xcc9'
p12060
tp12061
Rp12062
ag2
(g6
S'\x8f\x8a\xff;'
p12063
tp12064
Rp12065
ag2
(g6
S'\xd6\xcdL<'
p12066
tp12067
Rp12068
ag2
(g6
S'C02;'
p12069
tp12070
Rp12071
ag2
(g6
S'l\x1a\x81;'
p12072
tp12073
Rp12074
ag2
(g6
S'"\x1e\xde;'
p12075
tp12076
Rp12077
ag2
(g6
S'=w!;'
p12078
tp12079
Rp12080
ag2
(g6
S'\x82\x85\xee;'
p12081
tp12082
Rp12083
ag2
(g6
S'\xa4\xa9%;'
p12084
tp12085
Rp12086
ag2
(g6
S'\x01\xa2\x03<'
p12087
tp12088
Rp12089
ag2
(g6
S'\xf7\x96\x94;'
p12090
tp12091
Rp12092
ag2
(g6
S'+\xb4\xf9;'
p12093
tp12094
Rp12095
ag2
(g6
S'\xfeq><'
p12096
tp12097
Rp12098
ag2
(g6
S'\xf1\x9f\x1b<'
p12099
tp12100
Rp12101
ag2
(g6
S'\x03\x88?;'
p12102
tp12103
Rp12104
ag2
(g6
S'}*\xfe:'
p12105
tp12106
Rp12107
ag2
(g6
S'=\xe8.;'
p12108
tp12109
Rp12110
ag2
(g6
S'H.r;'
p12111
tp12112
Rp12113
ag2
(g6
S'\xab9\x06<'
p12114
tp12115
Rp12116
ag2
(g6
S'\xd5\x07\t:'
p12117
tp12118
Rp12119
ag2
(g6
S'L`\xd0;'
p12120
tp12121
Rp12122
ag2
(g6
S'\xa7\r\x82;'
p12123
tp12124
Rp12125
ag2
(g6
S'\x98\xae\x13;'
p12126
tp12127
Rp12128
ag2
(g6
S'\x06\xbe\x87;'
p12129
tp12130
Rp12131
ag2
(g6
S'w\x07\x8a:'
p12132
tp12133
Rp12134
ag2
(g6
S'H"\xcb;'
p12135
tp12136
Rp12137
ag2
(g6
S'V\xc1\x86;'
p12138
tp12139
Rp12140
ag2
(g6
S'\\\x0b5;'
p12141
tp12142
Rp12143
ag2
(g6
S'\x05\x8a\xfb;'
p12144
tp12145
Rp12146
ag2
(g6
S'q\xf9\xb3<'
p12147
tp12148
Rp12149
ag2
(g6
S'\x83\x8b\x9e;'
p12150
tp12151
Rp12152
ag2
(g6
S'\xa7.\x03:'
p12153
tp12154
Rp12155
ag2
(g6
S'\xfb\xd8x<'
p12156
tp12157
Rp12158
ag2
(g6
S'\xc8;\xe3:'
p12159
tp12160
Rp12161
ag2
(g6
S'8\x808<'
p12162
tp12163
Rp12164
ag2
(g6
S'\x82\x12\x89;'
p12165
tp12166
Rp12167
ag2
(g6
S'\xd4\x00h<'
p12168
tp12169
Rp12170
ag2
(g6
S'\xcfQ\x91;'
p12171
tp12172
Rp12173
ag2
(g6
S'\xb5\x84\xbf;'
p12174
tp12175
Rp12176
ag2
(g6
S'\xe0\xcf\xa7;'
p12177
tp12178
Rp12179
ag2
(g6
S'\xd7\xd2e<'
p12180
tp12181
Rp12182
ag2
(g6
S'J\x15\x9f;'
p12183
tp12184
Rp12185
ag2
(g6
S'}\xbd*;'
p12186
tp12187
Rp12188
ag2
(g6
S';A\x9d;'
p12189
tp12190
Rp12191
ag2
(g6
S'\xc8kY;'
p12192
tp12193
Rp12194
ag2
(g6
S'w\xe4\x8a;'
p12195
tp12196
Rp12197
ag2
(g6
S'\xa7\x07S<'
p12198
tp12199
Rp12200
ag2
(g6
S'\xf6\xdb\xcd;'
p12201
tp12202
Rp12203
ag2
(g6
S'-\xe3\x12<'
p12204
tp12205
Rp12206
ag2
(g6
S'\x9f\x7f\x95;'
p12207
tp12208
Rp12209
ag2
(g6
S'\xf9i\x87:'
p12210
tp12211
Rp12212
ag2
(g6
S'q~\x85;'
p12213
tp12214
Rp12215
ag2
(g6
S'O\xe0*<'
p12216
tp12217
Rp12218
ag2
(g6
S'\xe0!\xdf;'
p12219
tp12220
Rp12221
ag2
(g6
S'\t\xf0!;'
p12222
tp12223
Rp12224
ag2
(g6
S'lD\x8d;'
p12225
tp12226
Rp12227
ag2
(g6
S'\x81, <'
p12228
tp12229
Rp12230
ag2
(g6
S'j\x19\xb1;'
p12231
tp12232
Rp12233
ag2
(g6
S'\xd0\x94\x99;'
p12234
tp12235
Rp12236
ag2
(g6
S'\x8eG\xa6;'
p12237
tp12238
Rp12239
ag2
(g6
S'\x85\x84\xd3;'
p12240
tp12241
Rp12242
ag2
(g6
S'\x9d\xa45<'
p12243
tp12244
Rp12245
ag2
(g6
S'D\x1be;'
p12246
tp12247
Rp12248
ag2
(g6
S'D\xf1\x1f<'
p12249
tp12250
Rp12251
ag2
(g6
S'*\xd3 ;'
p12252
tp12253
Rp12254
ag2
(g6
S'}_?<'
p12255
tp12256
Rp12257
ag2
(g6
S'\x1a4,;'
p12258
tp12259
Rp12260
ag2
(g6
S'BL3;'
p12261
tp12262
Rp12263
ag2
(g6
S'\x1f~x;'
p12264
tp12265
Rp12266
ag2
(g6
S'\xf9\xd1\x10<'
p12267
tp12268
Rp12269
ag2
(g6
S'\xcf\nH<'
p12270
tp12271
Rp12272
ag2
(g6
S'\xb3\xac)<'
p12273
tp12274
Rp12275
ag2
(g6
S';\xdb9;'
p12276
tp12277
Rp12278
ag2
(g6
S'\xdar\x0e<'
p12279
tp12280
Rp12281
ag2
(g6
S'\xa4\x82\xf99'
p12282
tp12283
Rp12284
ag2
(g6
S'\x8e&!<'
p12285
tp12286
Rp12287
ag2
(g6
S',\xd2x:'
p12288
tp12289
Rp12290
ag2
(g6
S')O\x89:'
p12291
tp12292
Rp12293
ag2
(g6
S'\x8a\xfc+;'
p12294
tp12295
Rp12296
ag2
(g6
S'\x06\xd5\x87;'
p12297
tp12298
Rp12299
aa.