(lp0
(lp1
F9.057971014492754e-05
aF0.00018115942028985507
aF0.0002717391304347826
aF0.0003170289855072464
aF0.00040760869565217395
aF0.0004981884057971014
aF0.0005434782608695652
aF0.000588768115942029
aF0.0006340579710144928
aF0.0007699275362318841
aF0.0008605072463768117
aF0.0009510869565217393
aF0.0010869565217391304
aF0.001177536231884058
aF0.0012681159420289856
aF0.0013134057971014492
aF0.0014039855072463768
aF0.0014492753623188406
aF0.0015398550724637682
aF0.0016757246376811596
aF0.001766304347826087
aF0.001811594202898551
aF0.0019021739130434786
aF0.0019927536231884057
aF0.0020380434782608695
aF0.002128623188405797
aF0.0022192028985507247
aF0.0022644927536231885
aF0.002355072463768116
aF0.0024456521739130437
aF0.0024909420289855075
aF0.0026721014492753626
aF0.002717391304347826
aF0.0028079710144927536
aF0.0028532608695652174
aF0.0030344202898550726
aF0.003170289855072464
aF0.0034873188405797105
aF0.003713768115942029
aF0.003759057971014493
aF0.0039402173913043485
aF0.003985507246376811
aF0.004302536231884058
aF0.004664855072463768
aF0.004981884057971015
aF0.0050724637681159425
aF0.005117753623188406
aF0.005480072463768117
aF0.006159420289855073
aF0.006612318840579711
aF0.007291666666666668
aF0.007744565217391305
aF0.0077898550724637685
aF0.008242753623188407
aF0.008922101449275362
aF0.009375000000000001
aF0.009420289855072464
aF0.010054347826086957
aF0.010643115942028986
aF0.011186594202898551
aF0.011231884057971014
aF0.01177536231884058
aF0.012364130434782608
aF0.012409420289855073
aF0.014673913043478263
aF0.015217391304347828
aF0.015262681159420291
aF0.015806159420289855
aF0.02386775362318841
aF0.02391304347826087
aF0.024456521739130436
aF0.025
aF0.025045289855072463
aF0.02558876811594203
aF0.025634057971014493
aF0.02617753623188406
aF0.02676630434782609
aF0.03306159420289855
aF0.03310688405797101
aF0.03365036231884058
aF0.03423913043478261
aa(lp2
cnumpy.core.multiarray
scalar
p3
(cnumpy
dtype
p4
(S'f8'
p5
I0
I1
tp6
Rp7
(I3
S'<'
p8
NNNI-1
I-1
I0
tp9
bS'\xdc\xa4\xf7\x0c 9w?'
p10
tp11
Rp12
ag3
(g7
S'\xfe\x03\x11\x87\x9f\x85\x8f?'
p13
tp14
Rp15
ag3
(g7
S'\xd67\x9d\x0f\x1d\xcd\x94?'
p16
tp17
Rp18
ag3
(g7
S"\xad\xdb\rM'\xa4\x98?"
p19
tp20
Rp21
ag3
(g7
S'\xa6\xb0\xc0\x1a\x1b\r\xa2?'
p22
tp23
Rp24
ag3
(g7
S'J\x9b;Nw\x1a\xa7?'
p25
tp26
Rp27
ag3
(g7
S'>\x99\x10\xc7`A\xa8?'
p28
tp29
Rp30
ag3
(g7
S'.A\xd7\x12\x98\xca\xa9?'
p31
tp32
Rp33
ag3
(g7
S'\x1a\x9c\xe1\xb8\xbeO\xac?'
p34
tp35
Rp36
ag3
(g7
S'\xbcM\xa5\xf9\xf8"\xb1?'
p37
tp38
Rp39
ag3
(g7
S'\xba;X|\xeb\x7f\xb5?'
p40
tp41
Rp42
ag3
(g7
S'(\xbd@u\x1a\x87\xb7?'
p43
tp44
Rp45
ag3
(g7
S'\x1c\x0b(\xb9a\xba\xbc?'
p46
tp47
Rp48
ag3
(g7
S'\xcab\xd4\xd3\xb9^\xbf?'
p49
tp50
Rp51
ag3
(g7
S'\xd5\xddY\xf9d\x85\xc1?'
p52
tp53
Rp54
ag3
(g7
S'\r\xb4\x11\x01ip\xc2?'
p55
tp56
Rp57
ag3
(g7
S'\x1e\xe1\xa6,r|\xc4?'
p58
tp59
Rp60
ag3
(g7
S'\x0e\x89mx\xa9\x05\xc6?'
p61
tp62
Rp63
ag3
(g7
S'\xb2\xd6\xfa\x02\xd6\x07\xc8?'
p64
tp65
Rp66
ag3
(g7
S'\xdb\xda!\xe4\xed\x84\xca?'
p67
tp68
Rp69
ag3
(g7
S'N\xdd\x9f \xa8\xf8\xcb?'
p70
tp71
Rp72
ag3
(g7
S'\nt"\xca\xf1\x99\xcc?'
p73
tp74
Rp75
ag3
(g7
S'~v\xa0\x06\xac\r\xce?'
p76
tp77
Rp78
ag3
(g7
S'1\x05\x0cme\xb4\xd0?'
p79
tp80
Rp81
ag3
(g7
S'\xac\x19\xba\xb4F/\xd1?'
p82
tp83
Rp84
ag3
(g7
S'\x80#\x1b\xa4\x1a]\xd2?'
p85
tp86
Rp87
ag3
(g7
S'\xeda\xbe@\x85\x85\xd3?'
p88
tp89
Rp90
ag3
(g7
S'\x06"\x13..,\xd4?'
p91
tp92
Rp93
ag3
(g7
S'Dy`y\xbd\x83\xd4?'
p94
tp95
Rp96
ag3
(g7
S'?EA\xddP1\xd5?'
p97
tp98
Rp99
ag3
(g7
S'r@\xe1|\x9f\x06\xd6?'
p100
tp101
Rp102
ag3
(g7
S'\xc5l\x12&\xa2\x82\xd8?'
p103
tp104
Rp105
ag3
(g7
S'\xe1W\xee)$\xf8\xd8?'
p106
tp107
Rp108
ag3
(g7
S'\r\xad\x99K4\xc3\xd9?'
p109
tp110
Rp111
ag3
(g7
S'\xf9\xc2DRJl\xda?'
p112
tp113
Rp114
ag3
(g7
S'\xe2\x08\xfb\xce\xe0Z\xdc?'
p115
tp116
Rp117
ag3
(g7
S'\xc7&#<\xa3\x19\xde?'
p118
tp119
Rp120
ag3
(g7
S'#\xd7\x93\xf1\xedH\xe0?'
p121
tp122
Rp123
ag3
(g7
S'A9\x96\x07\x1a\x81\xe1?'
p124
tp125
Rp126
ag3
(g7
S'I\xee}\x16\xe1\xab\xe1?'
p127
tp128
Rp129
ag3
(g7
S'\x88\x90\xdd;\x9bx\xe2?'
p130
tp131
Rp132
ag3
(g7
S"\xe6J'H\x9d\xa3\xe2?"
p133
tp134
Rp135
ag3
(g7
S'\xb3\xe2to\x18\xab\xe3?'
p136
tp137
Rp138
ag3
(g7
S'\xbaQ\xd4\x90n\xb0\xe4?'
p139
tp140
Rp141
ag3
(g7
S'\x14\xb2Ka\x8c\xb1\xe5?'
p142
tp143
Rp144
ag3
(g7
S'\xe4\xbb\xb8\xf4\x80\x18\xe6?'
p145
tp146
Rp147
ag3
(g7
S'\x03A\xa4F97\xe6?'
p148
tp149
Rp150
ag3
(g7
S'\x08\xed\xf3\xcfl\xde\xe6?'
p151
tp152
Rp153
ag3
(g7
S'\x17\xeb\x87`\x127\xe8?'
p154
tp155
Rp156
ag3
(g7
S'\xccA\x0c\xcb\xf9\xfd\xe8?'
p157
tp158
Rp159
ag3
(g7
S'A\xeb\x94\x040G\xea?'
p160
tp161
Rp162
ag3
(g7
S'\x1c\xda\xc1\xed\x9c\xb2\xea?'
p163
tp164
Rp165
ag3
(g7
S'\xbb\xf4\xf0\xca\xc1\xb8\xea?'
p166
tp167
Rp168
ag3
(g7
S'\x8cP%6\xadD\xeb?'
p169
tp170
Rp171
ag3
(g7
S'\x9b\x93\x91\x93$\xcf\xeb?'
p172
tp173
Rp174
ag3
(g7
S'Y\x0b\x99\xe1K5\xec?'
p175
tp176
Rp177
ag3
(g7
S'\xe9+\x0e\xfa\xe5>\xec?'
p178
tp179
Rp180
ag3
(g7
S'\x90\x1c\xe7\x9c\x01\xb4\xec?'
p181
tp182
Rp183
ag3
(g7
S'g!\xa1-5\xf6\xec?'
p184
tp185
Rp186
ag3
(g7
S'@5\xd1\x95zE\xed?'
p187
tp188
Rp189
ag3
(g7
S'*e\xcdR\x89Q\xed?'
p190
tp191
Rp192
ag3
(g7
S'\xb1:od\xe8\x8a\xed?'
p193
tp194
Rp195
ag3
(g7
S'\x9e\x0e}\x17n\xcd\xed?'
p196
tp197
Rp198
ag3
(g7
S'\x8e\x14\xc3R\xe3\xd0\xed?'
p199
tp200
Rp201
ag3
(g7
S'H\x0e0e\xe1\x84\xee?'
p202
tp203
Rp204
ag3
(g7
S';k\x11\xef\xae\xa4\xee?'
p205
tp206
Rp207
ag3
(g7
S'\x84\x80\xde\xce\x98\xaa\xee?'
p208
tp209
Rp210
ag3
(g7
S'N\xbcf\x02\x92\xbd\xee?'
p211
tp212
Rp213
aF0.9847611706553124
aF0.9847611706553124
aF0.9851832819458719
aF0.9851832819458719
aF0.9851832819458719
aF0.9864496158175501
aF0.9864496158175501
aF0.9884378211716341
aF0.9884378211716341
aF0.9959134733029903
aF0.9959134733029903
aF0.9970574560759555
aF0.9970574560759555
aa(lp214
F4.533091568449683e-05
aF0.00018132366273798732
aF0.00027198549410698095
aF0.0003173164097914778
aF0.00036264732547597464
aF0.00040797824116047145
aF0.0004986400725294651
aF0.0005893019038984588
aF0.0006346328195829556
aF0.0007252946509519493
aF0.0008159564823209429
aF0.0008612873980054398
aF0.0009519492293744334
aF0.0010426110607434271
aF0.0010879419764279238
aF0.0011786038077969175
aF0.0012692656391659113
aF0.0013145965548504081
aF0.0014052583862194017
aF0.0014505893019038985
aF0.0014959202175883954
aF0.0015412511332728923
aF0.0016319129646418858
aF0.0016772438803263829
aF0.0017679057116953764
aF0.0018585675430643702
aF0.0019945602901178605
aF0.0020852221214868543
aF0.0023118766999093384
aF0.002447869446962829
aF0.0025385312783318226
aF0.0025838621940163196
aF0.0027651858567543067
aF0.0028558476881233004
aF0.003037171350861288
aF0.0032638259292837716
aF0.0034904805077062557
aF0.0037171350861287403
aF0.004034451495920218
aF0.004079782411604715
aF0.004397098821396192
aF0.004850407978241161
aF0.004895738893925658
aF0.004941069809610154
aF0.004986400725294652
aF0.005213055303717136
aF0.005258386219401633
aF0.005303717135086129
aF0.005349048050770626
aF0.00557570262919311
aF0.0061196736174070725
aF0.006165004533091569
aF0.00657298277425204
aF0.0066183136899365365
aF0.007071622846781506
aF0.007751586582048957
aF0.007796917497733456
aF0.008204895738893927
aF0.008794197642792384
aF0.009338168631006347
aF0.009383499546690844
aF0.009836808703535812
aF0.010516772438803265
aF0.010562103354487762
aF0.011106074342701723
aF0.012239347234814145
aF0.012284678150498642
aF0.013417951042611063
aF0.013961922030825023
aF0.01400725294650952
aF0.023798730734360837
aF0.0243427017225748
aF0.024388032638259297
aF0.024932003626473256
aF0.024977334542157753
aF0.025521305530371713
aF0.026110607434270173
aF0.026654578422484133
aF0.026699909338168633
aa(lp215
g3
(g7
S'`\xf8T\x8b4\xd4F?'
p216
tp217
Rp218
ag3
(g7
S'\xac\x0b\xc9\x80\xc8Q\x87?'
p219
tp220
Rp221
ag3
(g7
S'\x82]c\xc5\x0b\x9e\x92?'
p222
tp223
Rp224
ag3
(g7
S'\\\x84\xed\xe6\r\xa1\x97?'
p225
tp226
Rp227
ag3
(g7
S'FH\xa6]j\x92\x99?'
p228
tp229
Rp230
ag3
(g7
S'\x08B\xf9d\xfe\xf9\xa0?'
p231
tp232
Rp233
ag3
(g7
S'\xe8\x91\x86\xfcl\x0c\xa4?'
p234
tp235
Rp236
ag3
(g7
S'\xd0G\xc6\xdd\xb6\xc9\xa5?'
p237
tp238
Rp239
ag3
(g7
S'\xcdU?s\xc9\xfd\xa5?'
p240
tp241
Rp242
ag3
(g7
S'\xab\x17\xcdb\x0f\x16\xa9?'
p243
tp244
Rp245
ag3
(g7
S'\xf5\x88\x98\xa0\x11\xde\xae?'
p246
tp247
Rp248
ag3
(g7
S'\xe7\xcaR%]\xf4\xb0?'
p249
tp250
Rp251
ag3
(g7
S'\xd3\x1c\x0bD\xe2\xdf\xb2?'
p252
tp253
Rp254
ag3
(g7
S'\xac\x9dF\xf9\xa7n\xb6?'
p255
tp256
Rp257
ag3
(g7
S'%\xd6k\x19\x84\x11\xb8?'
p258
tp259
Rp260
ag3
(g7
S'\xfb+ \xb8p\xd1\xbb?'
p261
tp262
Rp263
ag3
(g7
S'\xd2\xcb\xde\xa1\xc8j\xbd?'
p264
tp265
Rp266
ag3
(g7
S'\xc3Ppe\xbb\xab\xbe?'
p267
tp268
Rp269
ag3
(g7
S')\xbd\xc8\xeb\xe9\xc2\xc0?'
p270
tp271
Rp272
ag3
(g7
S'\xf0\xa0=RL\x99\xc1?'
p273
tp274
Rp275
ag3
(g7
S'\xea\xf8I?2!\xc2?'
p276
tp277
Rp278
ag3
(g7
S'\x8cE\xcd\x00r2\xc3?'
p279
tp280
Rp281
ag3
(g7
S'~\xf1\xbc\x93\xf3~\xc4?'
p282
tp283
Rp284
ag3
(g7
S'xI\xc9\x80\xd9\x06\xc5?'
p285
tp286
Rp287
ag3
(g7
S',\x80\x9e\x94\xf9\x1a\xc7?'
p288
tp289
Rp290
ag3
(g7
S'lM:,d\x9d\xc8?'
p291
tp292
Rp293
ag3
(g7
S'\xe6c[_\x9c\xc4\xcb?'
p294
tp295
Rp296
ag3
(g7
S'UO\x80P\xd8Z\xcd?'
p297
tp298
Rp299
ag3
(g7
S'\x8e\x01\xb4q\x14(\xd1?'
p300
tp301
Rp302
ag3
(g7
S'\xd6\xf8\xd7?>\x04\xd2?'
p303
tp304
Rp305
ag3
(g7
S'\x11/5\xda\xa1\x85\xd2?'
p306
tp307
Rp308
ag3
(g7
S'\x8enj8\\\xcf\xd2?'
p309
tp310
Rp311
ag3
(g7
S'\x9c\xa8\xecxkw\xd4?'
p312
tp313
Rp314
ag3
(g7
S'\xd0\xdfH\xf3\xe8m\xd5?'
p315
tp316
Rp317
ag3
(g7
S'\x18\xd9\x12\xcc\xaa/\xd8?'
p318
tp319
Rp320
ag3
(g7
S'\xc0Q\xa2d\x16Z\xda?'
p321
tp322
Rp323
ag3
(g7
S'bfE`\xf5!\xdc?'
p324
tp325
Rp326
ag3
(g7
S'\x0e\xda\xac\xd1\xfc\x13\xde?'
p327
tp328
Rp329
ag3
(g7
S'\t\xcc\xe0z\xf2C\xe0?'
p330
tp331
Rp332
ag3
(g7
S'\xe8\x1bn\x12aV\xe0?'
p333
tp334
Rp335
ag3
(g7
S'\\\x10|kT\xb2\xe1?'
p336
tp337
Rp338
ag3
(g7
S'7nq\xe3\xbf\xe5\xe2?'
p339
tp340
Rp341
ag3
(g7
S'\xb6\xd8-XS\xfe\xe2?'
p342
tp343
Rp344
ag3
(g7
S'\x90\x86t\xc4^\x1b\xe3?'
p345
tp346
Rp347
ag3
(g7
S'\xef\x81\x88b37\xe3?'
p348
tp349
Rp350
ag3
(g7
S'\x13N\xfb~\xd0\xfa\xe3?'
p351
tp352
Rp353
ag3
(g7
S'\xd2.\xe0?\x80\x10\xe4?'
p354
tp355
Rp356
ag3
(g7
S'\xd0D#\xbby2\xe4?'
p357
tp358
Rp359
ag3
(g7
S'nu\x95\x13\x98Z\xe4?'
p360
tp361
Rp362
ag3
(g7
S'\xab\xbe\x08\x96\x95\n\xe5?'
p363
tp364
Rp365
ag3
(g7
S'I\xcf\xd87QP\xe6?'
p366
tp367
Rp368
ag3
(g7
S'\xa8\xca\xec\xd5%l\xe6?'
p369
tp370
Rp371
ag3
(g7
S'\xe68:\x87Eh\xe7?'
p372
tp373
Rp374
ag3
(g7
S'%n\x98A\x8ft\xe7?'
p375
tp376
Rp377
ag3
(g7
S'\xe5aO\x16\x82l\xe8?'
p378
tp379
Rp380
ag3
(g7
S'\xe5\x8ad\xa5\xbep\xe9?'
p381
tp382
Rp383
ag3
(g7
S'\xe5\x8ad\xa5\xbep\xe9?'
p384
tp385
Rp386
ag3
(g7
S'\xcd\xfb[$\x7f\x1a\xea?'
p387
tp388
Rp389
ag3
(g7
S'1\xd6\xce+\xd7\xde\xea?'
p390
tp391
Rp392
ag3
(g7
S'\x9co\xb9\xad>;\xeb?'
p393
tp394
Rp395
ag3
(g7
S'\x1az:u=M\xeb?'
p396
tp397
Rp398
ag3
(g7
S'\xf0\x8b\xa3\xc9E\xab\xeb?'
p399
tp400
Rp401
ag3
(g7
S'\xbe\x87\x87\x96r^\xec?'
p402
tp403
Rp404
ag3
(g7
S'8P\xfd\xdf\xa2\x81\xec?'
p405
tp406
Rp407
ag3
(g7
S'\xf3\x8c\x17\xd5\x82\xe2\xec?'
p408
tp409
Rp410
ag3
(g7
S'H\xe8G\xe2\xef\x83\xed?'
p411
tp412
Rp413
ag3
(g7
S'H\xe8G\xe2\xef\x83\xed?'
p414
tp415
Rp416
ag3
(g7
S'\x99\xb2L\x18\x8f\x19\xee?'
p417
tp418
Rp419
ag3
(g7
S'\x16\xa4\xc5\xd7+L\xee?'
p420
tp421
Rp422
ag3
(g7
S'\xf64\x1d\x01mO\xee?'
p423
tp424
Rp425
aF0.9856920773836941
aF0.9864866421004146
aF0.9864866421004146
aF0.9875806080147398
aF0.9875806080147398
aF0.9883751727314601
aF0.9891697374481806
aF0.9899643021649009
aF0.9903615845232612
aa(lp426
F4.528985507246377e-05
aF0.0001358695652173913
aF0.0002717391304347826
aF0.0003170289855072464
aF0.00036231884057971015
aF0.0004981884057971014
aF0.000588768115942029
aF0.0006793478260869565
aF0.0008152173913043479
aF0.0009057971014492755
aF0.0009510869565217393
aF0.0010416666666666667
aF0.0010869565217391304
aF0.0011322463768115942
aF0.001177536231884058
aF0.0012681159420289856
aF0.0013134057971014492
aF0.001358695652173913
aF0.0014039855072463768
aF0.0014945652173913044
aF0.0016304347826086958
aF0.0017210144927536234
aF0.001766304347826087
aF0.0018568840579710145
aF0.0019474637681159421
aF0.0019927536231884057
aF0.0020833333333333333
aF0.002128623188405797
aF0.002173913043478261
aF0.0023097826086956523
aF0.00240036231884058
aF0.0024456521739130437
aF0.0026268115942028984
aF0.0026721014492753626
aF0.0027626811594202902
aF0.002898550724637681
aF0.003125
aF0.0032155797101449273
aF0.0032608695652173916
aF0.0033061594202898554
aF0.003351449275362319
aF0.0035778985507246377
aF0.0036684782608695657
aF0.003713768115942029
aF0.0038949275362318843
aF0.0039402173913043485
aF0.004121376811594204
aF0.004166666666666667
aF0.004347826086956522
aF0.004393115942028986
aF0.004710144927536232
aF0.004936594202898551
aF0.00516304347826087
aF0.005253623188405797
aF0.0052989130434782615
aF0.0055253623188405805
aF0.00588768115942029
aF0.0062047101449275366
aF0.00625
aF0.006567028985507247
aF0.006793478260869565
aF0.006838768115942029
aF0.007246376811594204
aF0.007472826086956522
aF0.007518115942028986
aF0.007835144927536232
aF0.008152173913043478
aF0.008197463768115943
aF0.008740942028985508
aF0.008786231884057971
aF0.009329710144927537
aF0.009918478260869565
aF0.010009057971014493
aF0.010461956521739132
aF0.011141304347826087
aF0.011186594202898551
aF0.01163949275362319
aF0.012318840579710146
aF0.012907608695652174
aF0.013451086956521738
aF0.013496376811594202
aF0.014628623188405798
aF0.023822463768115944
aF0.02386775362318841
aF0.024954710144927537
aF0.025
aF0.02554347826086957
aF0.02558876811594203
aF0.026132246376811597
aF0.026721014492753627
aa(lp427
g3
(g7
S'\x88\xfe\x97\xf4jVp?'
p428
tp429
Rp430
ag3
(g7
S'\xd6sM\x8f\x85-\x82?'
p431
tp432
Rp433
ag3
(g7
S'^\x9c\xe2\xeb\x90\x93\x90?'
p434
tp435
Rp436
ag3
(g7
S'\xa7Vc\xf6\xb8\x94\x95?'
p437
tp438
Rp439
ag3
(g7
S'\x82\x06\xf5&JF\x9e?'
p440
tp441
Rp442
ag3
(g7
S'\x14\xd1\xdc#}\\\xa3?'
p443
tp444
Rp445
ag3
(g7
S'|=\xdd\x0b~\xdd\xa4?'
p446
tp447
Rp448
ag3
(g7
S'\xb6\x9es\x1f?\x10\xa5?'
p449
tp450
Rp451
ag3
(g7
S'\xb6,\xee\xa8\x9d\t\xa9?'
p452
tp453
Rp454
ag3
(g7
S'\x9cb\x11ldE\xaf?'
p455
tp456
Rp457
ag3
(g7
S'\xca\x00\xd8CS\xa7\xb2?'
p458
tp459
Rp460
ag3
(g7
S'\xb9\xa8\x9e\x8f\x8a0\xb4?'
p461
tp462
Rp463
ag3
(g7
S'\xad\xa6s\x08tW\xb5?'
p464
tp465
Rp466
ag3
(g7
S'=\xaa\x8c\xf4\xe4\xc8\xb6?'
p467
tp468
Rp469
ag3
(g7
S'\xc7,\x10\x9d\xca\xcd\xb8?'
p470
tp471
Rp472
ag3
(g7
S'\xf4`\xf4\x12\x9cX\xba?'
p473
tp474
Rp475
ag3
(g7
S'd\xefo\x9a\x18\x05\xbc?'
p476
tp477
Rp478
ag3
(g7
S'\x02 ;$y\x1e\xbc?'
p479
tp480
Rp481
ag3
(g7
S';\xa1!P\x9f\xa3\xbd?'
p482
tp483
Rp484
ag3
(g7
S'\xc5#\xa5\xf8\x84\xa8\xbf?'
p485
tp486
Rp487
ag3
(g7
S'\x92&\xd9pr9\xc2?'
p488
tp489
Rp490
ag3
(g7
S'\x86$\xae\xe9[`\xc3?'
p491
tp492
Rp493
ag3
(g7
S'\x02\xf3\x84\x19%\x8a\xc4?'
p494
tp495
Rp496
ag3
(g7
S'\xc4\xf3\xfbKR\xd6\xc5?'
p497
tp498
Rp499
ag3
(g7
S'T\x94k\x96\xb1?\xc8?'
p500
tp501
Rp502
ag3
(g7
S'L\xe8N<M\x04\xc9?'
p503
tp504
Rp505
ag3
(g7
S'^W2\x1c))\xca?'
p506
tp507
Rp508
ag3
(g7
S'X\xd6\x9c\xd8\x9d\xbc\xca?'
p509
tp510
Rp511
ag3
(g7
S'\xcf\x94<\xf3\xcc\x99\xcb?'
p512
tp513
Rp514
ag3
(g7
S'\xba\xe6\xf4\x11R\x85\xcd?'
p515
tp516
Rp517
ag3
(g7
S")\xf9w\xd2\x1c'\xcf?"
p518
tp519
Rp520
ag3
(g7
S'\x1d\xb4-Y\xfc%\xd0?'
p521
tp522
Rp523
ag3
(g7
S'\xa3\x80\rb\x91\t\xd2?'
p524
tp525
Rp526
ag3
(g7
S'\xee-(\xae\x8e^\xd2?'
p527
tp528
Rp529
ag3
(g7
S'F\x86\x9a\xe8\xb1\x1f\xd3?'
p530
tp531
Rp532
ag3
(g7
S'\x0b\xb2\x981\xb8:\xd4?'
p533
tp534
Rp535
ag3
(g7
S'8\x94\x83\xc4-x\xd6?'
p536
tp537
Rp538
ag3
(g7
S'\xbe\xb5\xaai\xc3U\xd7?'
p539
tp540
Rp541
ag3
(g7
S'_kD\xbd#\x08\xd8?'
p542
tp543
Rp544
ag3
(g7
S'\x87\xff\x0e\x08\xefK\xd8?'
p545
tp546
Rp547
ag3
(g7
S'\xaaus\xfd\x94\xb4\xd8?'
p548
tp549
Rp550
ag3
(g7
S'\x98R\x94g\xb4S\xda?'
p551
tp552
Rp553
ag3
(g7
S'\xa6\xef\xbc\x15O1\xdb?'
p554
tp555
Rp556
ag3
(g7
S'J\xfbd\x96a\x81\xdb?'
p557
tp558
Rp559
ag3
(g7
S'\\\xbfH$\x18\xa9\xdc?'
p560
tp561
Rp562
ag3
(g7
S'9\xa0\xdd(\xf4]\xdd?'
p563
tp564
Rp565
ag3
(g7
S'ZP\xe3A\xce\xa3\xde?'
p566
tp567
Rp568
ag3
(g7
S'\xbd\xfb\xa5\xf1\xbd\x18\xdf?'
p569
tp570
Rp571
ag3
(g7
S'd?\xd8\xac\x87u\xe0?'
p572
tp573
Rp574
ag3
(g7
S'\x96*\xfd\x0fl\x97\xe0?'
p575
tp576
Rp577
ag3
(g7
S'\xef\xdf\x83>\x03\xb0\xe1?'
p578
tp579
Rp580
ag3
(g7
S'T/\xb6d\x86,\xe2?'
p581
tp582
Rp583
ag3
(g7
S'\x87\xf0\xd7\x1b\x99\xde\xe2?'
p584
tp585
Rp586
ag3
(g7
S'\xed\x11\x87\x07\xce\xfc\xe2?'
p587
tp588
Rp589
ag3
(g7
S'\xd4\xc8y~o\x02\xe3?'
p590
tp591
Rp592
ag3
(g7
S'\x19\xd7\x86\x13\xad\xa1\xe3?'
p593
tp594
Rp595
ag3
(g7
S'x\xfe-G\xcc\xde\xe4?'
p596
tp597
Rp598
ag3
(g7
S'8\xe9#\x87E\xa2\xe5?'
p599
tp600
Rp601
ag3
(g7
S'\xebi\x8cu\x96\xab\xe5?'
p602
tp603
Rp604
ag3
(g7
S'>\x90\xbbo\xcep\xe6?'
p605
tp606
Rp607
ag3
(g7
S'\xbeS\x825\x89\xb6\xe6?'
p608
tp609
Rp610
ag3
(g7
S'\xdc\xd8m\x87A\xd5\xe6?'
p611
tp612
Rp613
ag3
(g7
S'\x06\xe8\xc49\xb5\xb9\xe7?'
p614
tp615
Rp616
ag3
(g7
S'\xde\t\x194\x85\xfa\xe7?'
p617
tp618
Rp619
ag3
(g7
S'^t\xd5\xa8\x18\x13\xe8?'
p620
tp621
Rp622
ag3
(g7
S'\xd1\xb1\xb0\x9c\x94\x81\xe8?'
p623
tp624
Rp625
ag3
(g7
S'\x8a\x07\xbe\xc2\x8c\xf3\xe8?'
p626
tp627
Rp628
ag3
(g7
S'\x1d\xd8\xb3HL\x0f\xe9?'
p629
tp630
Rp631
ag3
(g7
S'{\x19\x8b\xe0\xc3\xc5\xe9?'
p632
tp633
Rp634
ag3
(g7
S'.\x9a\xf3\xce\x14\xcf\xe9?'
p635
tp636
Rp637
ag3
(g7
S'\x1d[\xad\x1c\xa54\xea?'
p638
tp639
Rp640
ag3
(g7
S'/\xfd\x0e\x94\xda\xe8\xea?'
p641
tp642
Rp643
ag3
(g7
S'\xaeg\xcb\x08n\x01\xeb?'
p644
tp645
Rp646
ag3
(g7
S'\x08\x98K\xeedb\xeb?'
p647
tp648
Rp649
ag3
(g7
S'\xd5\xa8\x92\xd3c\xda\xeb?'
p650
tp651
Rp652
ag3
(g7
S'\xe8\x0e\xcc\xe4\x8f\xdd\xeb?'
p653
tp654
Rp655
ag3
(g7
S'\x1d3\x1d\x8a\x08!\xec?'
p656
tp657
Rp658
ag3
(g7
S'\n\x14\xb5\xe6+\x92\xec?'
p659
tp660
Rp661
ag3
(g7
S'\xd2\xe8\x1d\x03\xd1\xe5\xec?'
p662
tp663
Rp664
ag3
(g7
S'\x9b\x08\xecD\xe2\x13\xed?'
p665
tp666
Rp667
ag3
(g7
S'\x82\xbf\xde\xbb\x83\x19\xed?'
p668
tp669
Rp670
ag3
(g7
S'\xcc\x17R\x80\xbd\x9b\xed?'
p671
tp672
Rp673
aF0.9658751431607125
aF0.9658751431607125
aF0.9685857101461274
aF0.9685857101461274
aF0.9704347256143837
aF0.9711220695174622
aF0.9722837410826399
aF0.9733583088407777
aa(lp674
F4.528985507246377e-05
aF0.0001358695652173913
aF0.00022644927536231887
aF0.0002717391304347826
aF0.00036231884057971015
aF0.00045289855072463774
aF0.000588768115942029
aF0.0006793478260869565
aF0.0008152173913043479
aF0.0009057971014492755
aF0.0009510869565217393
aF0.0010416666666666667
aF0.0011322463768115942
aF0.001177536231884058
aF0.0012681159420289856
aF0.0013134057971014492
aF0.001358695652173913
aF0.0014039855072463768
aF0.0014945652173913044
aF0.001585144927536232
aF0.0016304347826086958
aF0.0017210144927536234
aF0.0018568840579710145
aF0.0019474637681159421
aF0.0019927536231884057
aF0.0020833333333333333
aF0.002173913043478261
aF0.0023097826086956523
aF0.00240036231884058
aF0.0024456521739130437
aF0.0025362318840579713
aF0.0026721014492753626
aF0.0027626811594202902
aF0.0028079710144927536
aF0.002989130434782609
aF0.0030344202898550726
aF0.003125
aF0.0032155797101449273
aF0.0034420289855072467
aF0.0034873188405797105
aF0.0036684782608695657
aF0.003713768115942029
aF0.0038949275362318843
aF0.0039402173913043485
aF0.004121376811594204
aF0.004166666666666667
aF0.004347826086956522
aF0.004393115942028986
aF0.004619565217391305
aF0.004664855072463768
aF0.004710144927536232
aF0.004755434782608696
aF0.0048460144927536235
aF0.00516304347826087
aF0.005208333333333334
aF0.005389492753623189
aF0.005434782608695652
aF0.005751811594202899
aF0.006114130434782609
aF0.006431159420289855
aF0.006702898550724638
aF0.007155797101449275
aF0.007472826086956522
aF0.00806159420289855
aF0.008740942028985508
aF0.009193840579710146
aF0.009782608695652175
aF0.00982789855072464
aF0.009873188405797102
aF0.009918478260869565
aF0.010371376811594203
aF0.010914855072463769
aF0.010960144927536233
aF0.011503623188405797
aF0.011548913043478262
aF0.011594202898550725
aF0.01163949275362319
aF0.012182971014492755
aF0.012228260869565218
aF0.012771739130434785
aF0.012817028985507246
aF0.013360507246376814
aF0.014492753623188408
aF0.021965579710144928
aF0.022010869565217393
aF0.02314311594202899
aF0.02368659420289855
aF0.023731884057971015
aF0.02486413043478261
aF0.02604166666666667
aF0.026585144927536233
aF0.02717391304347826
aF0.02776268115942029
aF0.028306159420289856
aa(lp675
g3
(g7
S'\x00\x8c\x8849y:?'
p676
tp677
Rp678
ag3
(g7
S'\\\xe1\x06\xf6\xd9\xbd~?'
p679
tp680
Rp681
ag3
(g7
S'ml\x93\xe6\x8c\xf4\x86?'
p682
tp683
Rp684
ag3
(g7
S'\x80\xef\xfek\xe7:\x8e?'
p685
tp686
Rp687
ag3
(g7
S'\x07\xaf\x10\xe4\xa6\xfb\x9c?'
p688
tp689
Rp690
ag3
(g7
S'\xef\xaa\xba\xd5yI\x9f?'
p691
tp692
Rp693
ag3
(g7
S'K\xa4N}\x93\x9c\xa4?'
p694
tp695
Rp696
ag3
(g7
S'[\t\x9b\x95!\x96\xa5?'
p697
tp698
Rp699
ag3
(g7
S'\xaee\xa7V\xd5\xd4\xab?'
p700
tp701
Rp702
ag3
(g7
S'\x8d\xb54\xeeC\xe7\xae?'
p703
tp704
Rp705
ag3
(g7
S'\xc0\xd9\x84\xb3\x16\x07\xb0?'
p706
tp707
Rp708
ag3
(g7
S'\xaeV\xc4\xe8t\xc1\xb1?'
p709
tp710
Rp711
ag3
(g7
S'\x8f\xafe\x073\xc6\xb5?'
p712
tp713
Rp714
ag3
(g7
S'\x13a\xf6\xcfn\xd6\xb6?'
p715
tp716
Rp717
ag3
(g7
S'|3\xb6/3!\xb9?'
p718
tp719
Rp720
ag3
(g7
S'\xa7\xd3\xbb[\xa5\xd8\xb9?'
p721
tp722
Rp723
ag3
(g7
S'+\x85L$\xe1\xe8\xba?'
p724
tp725
Rp726
ag3
(g7
S'\xaa\x0bV\xd6C*\xbc?'
p727
tp728
Rp729
ag3
(g7
S'\x81\xfa\xdf\xe07\x99\xbe?'
p730
tp731
Rp732
ag3
(g7
S'7?\x98\x04\x1c\xfa\xc0?'
p733
tp734
Rp735
ag3
(g7
S'7\xae\xde<\xd7\x8b\xc1?'
p736
tp737
Rp738
ag3
(g7
S'\xa9\x16p*T\xcb\xc2?'
p739
tp740
Rp741
ag3
(g7
S'a\x98\x14\x9e4I\xc4?'
p742
tp743
Rp744
ag3
(g7
S"\x08@\x91\xcc+'\xc6?"
p745
tp746
Rp747
ag3
(g7
S'|\xd3\xa9\xd0\x815\xc7?'
p748
tp749
Rp750
ag3
(g7
S'\xb2\x94\x83\xa2\x1c\xfd\xc8?'
p751
tp752
Rp753
ag3
(g7
S'2\x1b\x8dT\x7f>\xca?'
p754
tp755
Rp756
ag3
(g7
S'?\x1a\xeej\x1er\xcc?'
p757
tp758
Rp759
ag3
(g7
S'\xf8\xc6\x19\xf5\xd7\xbe\xcd?'
p760
tp761
Rp762
ag3
(g7
S'(\x1c++/A\xcf?'
p763
tp764
Rp765
ag3
(g7
S'\x8dw\xbc\xc6\x9fL\xd0?'
p766
tp767
Rp768
ag3
(g7
S'\xc8\xb9+\xdc\xc5\x80\xd1?'
p769
tp770
Rp771
ag3
(g7
S'F\x87\x07\xd9\xe7^\xd2?'
p772
tp773
Rp774
ag3
(g7
S'T4\x95\x9a\xa4\xec\xd2?'
p775
tp776
Rp777
ag3
(g7
S'C1\x9d\xfe\x8fv\xd4?'
p778
tp779
Rp780
ag3
(g7
S'\x01\xd1\xb7-m\x9b\xd4?'
p781
tp782
Rp783
ag3
(g7
S'Ze\xc2t\xfbR\xd5?'
p784
tp785
Rp786
ag3
(g7
S'u\xdb\xf2h5\x1e\xd6?'
p787
tp788
Rp789
ag3
(g7
S'\x81\xac\x15\xed\xc3\xf3\xd7?'
p790
tp791
Rp792
ag3
(g7
S'$9\x1f\xb0\xf5\x12\xd8?'
p793
tp794
Rp795
ag3
(g7
S'\x06YKoZ\x92\xd9?'
p796
tp797
Rp798
ag3
(g7
S'eZ\xe8J\x90\x07\xda?'
p799
tp800
Rp801
ag3
(g7
S'\xa9\xd6\x1aY\x82\x0b\xdb?'
p802
tp803
Rp804
ag3
(g7
S'\xde\xfe\xba\x11\xc7\xcc\xdb?'
p805
tp806
Rp807
ag3
(g7
S'TK7\x8e\x83\\\xdd?'
p808
tp809
Rp810
ag3
(g7
S'5\r\x9f\x0b\xff\x87\xdd?'
p811
tp812
Rp813
ag3
(g7
S'4\xd3\xdd\x1b\x1c\x13\xdf?'
p814
tp815
Rp816
ag3
(g7
S'\x16\x95E\x99\x97>\xdf?'
p817
tp818
Rp819
ag3
(g7
S'\xaf\x91P\xe4lx\xe0?'
p820
tp821
Rp822
ag3
(g7
S'\xce\x16<6%\x97\xe0?'
p823
tp824
Rp825
ag3
(g7
S'^\x12\x1f\xd2\x07\xb3\xe0?'
p826
tp827
Rp828
ag3
(g7
S'\xfc\x01\xc7\x98S\xea\xe0?'
p829
tp830
Rp831
ag3
(g7
S'\xd6?\x18\x1a28\xe1?'
p832
tp833
Rp834
ag3
(g7
S'u\x18X\xdf\x0f\x0c\xe2?'
p835
tp836
Rp837
ag3
(g7
S'Th\xe5v~\x1e\xe2?'
p838
tp839
Rp840
ag3
(g7
S'B\xc4_\xaf/\xb8\xe2?'
p841
tp842
Rp843
ag3
(g7
S']b1\xe3C\xf0\xe2?'
p844
tp845
Rp846
ag3
(g7
S'j\xcd\x18E\x1f\x80\xe3?'
p847
tp848
Rp849
ag3
(g7
S'\x0c\xa4\x91q\xa9i\xe4?'
p850
tp851
Rp852
ag3
(g7
S'\x05\xde\xf0{\xb2J\xe5?'
p853
tp854
Rp855
ag3
(g7
S'A\x19;\x96E\xfe\xe5?'
p856
tp857
Rp858
ag3
(g7
S'\xf8|6\xa7\x9d\xdb\xe6?'
p859
tp860
Rp861
ag3
(g7
S'\xfd\x1dXL\x8c\x8f\xe7?'
p862
tp863
Rp864
ag3
(g7
S'v\xed\xfa\xe1\x01X\xe8?'
p865
tp866
Rp867
ag3
(g7
S'\xb2\xce\x92\x8ca^\xe9?'
p868
tp869
Rp870
ag3
(g7
S'\xc4\xa7\xb0\x91\xc8\xf7\xe9?'
p871
tp872
Rp873
ag3
(g7
S'T/]"\xe5\x82\xea?'
p874
tp875
Rp876
ag3
(g7
S'\xa5\xf5\xe1\x03~\x92\xea?'
p877
tp878
Rp879
ag3
(g7
S'\xf6\xbbf\xe5\x16\xa2\xea?'
p880
tp881
Rp882
ag3
(g7
S'g\x91X\xf0\xd9\xa7\xea?'
p883
tp884
Rp885
ag3
(g7
S'-\x87\x02\xd1\xdd\x17\xeb?'
p886
tp887
Rp888
ag3
(g7
S'\x1c\x83\xae\xcb\x99\xc0\xeb?'
p889
tp890
Rp891
ag3
(g7
S'G@1_\xdd\xd3\xeb?'
p892
tp893
Rp894
ag3
(g7
S'\x99\xa8_\x8e\xc1&\xec?'
p895
tp896
Rp897
ag3
(g7
S'\xd8\xdd\xbdH\x0b3\xec?'
p898
tp899
Rp900
ag3
(g7
S'\x18\x13\x1c\x03U?\xec?'
p901
tp902
Rp903
ag3
(g7
S'\xb8-K\xe0yE\xec?'
p904
tp905
Rp906
ag3
(g7
S'\xe2\x04"\xa1\xd7\x9f\xec?'
p907
tp908
Rp909
ag3
(g7
S'1*\xa1C\t\xb8\xec?'
p910
tp911
Rp912
ag3
(g7
S'e\r\xe4 5\xec\xec?'
p913
tp914
Rp915
ag3
(g7
S'\x84\x92\xcfr\xed\n\xed?'
p916
tp917
Rp918
ag3
(g7
S'\xfcG\xd2\x06I3\xed?'
p919
tp920
Rp921
ag3
(g7
S'N%\xab\xe1^\xc6\xed?'
p922
tp923
Rp924
aF0.9568291987453664
aF0.9568291987453664
aF0.9592529227259766
aF0.9607641859138865
aF0.9607641859138865
aF0.9622754491017964
aF0.9658064822735482
aF0.9680211006558312
aF0.970040870639673
aF0.9720606406235148
aF0.9740804106073567
aa.